ARM GAS  /var/folders/68/n33lqcg953z5y1x0pvkj58xc0000gn/T//ccVO6lac.s 			page 1


   1              		.syntax unified
   2              		.cpu cortex-m4
   3              		.eabi_attribute 27, 1
   4              		.eabi_attribute 28, 1
   5              		.fpu fpv4-sp-d16
   6              		.eabi_attribute 20, 1
   7              		.eabi_attribute 21, 1
   8              		.eabi_attribute 23, 3
   9              		.eabi_attribute 24, 1
  10              		.eabi_attribute 25, 1
  11              		.eabi_attribute 26, 1
  12              		.eabi_attribute 30, 1
  13              		.eabi_attribute 34, 1
  14              		.eabi_attribute 18, 4
  15              		.thumb
  16              		.file	"adc.c"
  17              		.text
  18              	.Ltext0:
  19              		.cfi_sections	.debug_frame
  20              		.section	.text.MX_ADC1_Init,"ax",%progbits
  21              		.align	2
  22              		.global	MX_ADC1_Init
  23              		.thumb
  24              		.thumb_func
  26              	MX_ADC1_Init:
  27              	.LFB123:
  28              		.file 1 "Src/adc.c"
   1:Src/adc.c     **** /**
   2:Src/adc.c     ****   ******************************************************************************
   3:Src/adc.c     ****   * File Name          : ADC.c
   4:Src/adc.c     ****   * Description        : This file provides code for the configuration
   5:Src/adc.c     ****   *                      of the ADC instances.
   6:Src/adc.c     ****   ******************************************************************************
   7:Src/adc.c     ****   ** This notice applies to any and all portions of this file
   8:Src/adc.c     ****   * that are not between comment pairs USER CODE BEGIN and
   9:Src/adc.c     ****   * USER CODE END. Other portions of this file, whether 
  10:Src/adc.c     ****   * inserted by the user or by software development tools
  11:Src/adc.c     ****   * are owned by their respective copyright owners.
  12:Src/adc.c     ****   *
  13:Src/adc.c     ****   * COPYRIGHT(c) 2018 STMicroelectronics
  14:Src/adc.c     ****   *
  15:Src/adc.c     ****   * Redistribution and use in source and binary forms, with or without modification,
  16:Src/adc.c     ****   * are permitted provided that the following conditions are met:
  17:Src/adc.c     ****   *   1. Redistributions of source code must retain the above copyright notice,
  18:Src/adc.c     ****   *      this list of conditions and the following disclaimer.
  19:Src/adc.c     ****   *   2. Redistributions in binary form must reproduce the above copyright notice,
  20:Src/adc.c     ****   *      this list of conditions and the following disclaimer in the documentation
  21:Src/adc.c     ****   *      and/or other materials provided with the distribution.
  22:Src/adc.c     ****   *   3. Neither the name of STMicroelectronics nor the names of its contributors
  23:Src/adc.c     ****   *      may be used to endorse or promote products derived from this software
  24:Src/adc.c     ****   *      without specific prior written permission.
  25:Src/adc.c     ****   *
  26:Src/adc.c     ****   * THIS SOFTWARE IS PROVIDED BY THE COPYRIGHT HOLDERS AND CONTRIBUTORS "AS IS"
  27:Src/adc.c     ****   * AND ANY EXPRESS OR IMPLIED WARRANTIES, INCLUDING, BUT NOT LIMITED TO, THE
  28:Src/adc.c     ****   * IMPLIED WARRANTIES OF MERCHANTABILITY AND FITNESS FOR A PARTICULAR PURPOSE ARE
  29:Src/adc.c     ****   * DISCLAIMED. IN NO EVENT SHALL THE COPYRIGHT HOLDER OR CONTRIBUTORS BE LIABLE
  30:Src/adc.c     ****   * FOR ANY DIRECT, INDIRECT, INCIDENTAL, SPECIAL, EXEMPLARY, OR CONSEQUENTIAL
ARM GAS  /var/folders/68/n33lqcg953z5y1x0pvkj58xc0000gn/T//ccVO6lac.s 			page 2


  31:Src/adc.c     ****   * DAMAGES (INCLUDING, BUT NOT LIMITED TO, PROCUREMENT OF SUBSTITUTE GOODS OR
  32:Src/adc.c     ****   * SERVICES; LOSS OF USE, DATA, OR PROFITS; OR BUSINESS INTERRUPTION) HOWEVER
  33:Src/adc.c     ****   * CAUSED AND ON ANY THEORY OF LIABILITY, WHETHER IN CONTRACT, STRICT LIABILITY,
  34:Src/adc.c     ****   * OR TORT (INCLUDING NEGLIGENCE OR OTHERWISE) ARISING IN ANY WAY OUT OF THE USE
  35:Src/adc.c     ****   * OF THIS SOFTWARE, EVEN IF ADVISED OF THE POSSIBILITY OF SUCH DAMAGE.
  36:Src/adc.c     ****   *
  37:Src/adc.c     ****   ******************************************************************************
  38:Src/adc.c     ****   */
  39:Src/adc.c     **** 
  40:Src/adc.c     **** /* Includes ------------------------------------------------------------------*/
  41:Src/adc.c     **** #include "adc.h"
  42:Src/adc.c     **** 
  43:Src/adc.c     **** #include "gpio.h"
  44:Src/adc.c     **** #include "dma.h"
  45:Src/adc.c     **** 
  46:Src/adc.c     **** /* USER CODE BEGIN 0 */
  47:Src/adc.c     **** 
  48:Src/adc.c     **** /* USER CODE END 0 */
  49:Src/adc.c     **** 
  50:Src/adc.c     **** ADC_HandleTypeDef hadc1;
  51:Src/adc.c     **** DMA_HandleTypeDef hdma_adc1;
  52:Src/adc.c     **** 
  53:Src/adc.c     **** /* ADC1 init function */
  54:Src/adc.c     **** void MX_ADC1_Init(void)
  55:Src/adc.c     **** {
  29              		.loc 1 55 0
  30              		.cfi_startproc
  31              		@ args = 0, pretend = 0, frame = 16
  32              		@ frame_needed = 0, uses_anonymous_args = 0
  33 0000 00B5     		push	{lr}
  34              	.LCFI0:
  35              		.cfi_def_cfa_offset 4
  36              		.cfi_offset 14, -4
  37 0002 85B0     		sub	sp, sp, #20
  38              	.LCFI1:
  39              		.cfi_def_cfa_offset 24
  56:Src/adc.c     ****   ADC_ChannelConfTypeDef sConfig;
  57:Src/adc.c     **** 
  58:Src/adc.c     ****     /**Configure the global features of the ADC (Clock, Resolution, Data Alignment and number of co
  59:Src/adc.c     ****     */
  60:Src/adc.c     ****   hadc1.Instance = ADC1;
  40              		.loc 1 60 0
  41 0004 1B48     		ldr	r0, .L6
  42 0006 1C4B     		ldr	r3, .L6+4
  43 0008 0360     		str	r3, [r0]
  61:Src/adc.c     ****   hadc1.Init.ClockPrescaler = ADC_CLOCK_SYNC_PCLK_DIV2;
  44              		.loc 1 61 0
  45 000a 0023     		movs	r3, #0
  46 000c 4360     		str	r3, [r0, #4]
  62:Src/adc.c     ****   hadc1.Init.Resolution = ADC_RESOLUTION_12B;
  47              		.loc 1 62 0
  48 000e 8360     		str	r3, [r0, #8]
  63:Src/adc.c     ****   hadc1.Init.ScanConvMode = ENABLE;
  49              		.loc 1 63 0
  50 0010 0122     		movs	r2, #1
  51 0012 0261     		str	r2, [r0, #16]
  64:Src/adc.c     ****   hadc1.Init.ContinuousConvMode = ENABLE;
ARM GAS  /var/folders/68/n33lqcg953z5y1x0pvkj58xc0000gn/T//ccVO6lac.s 			page 3


  52              		.loc 1 64 0
  53 0014 8261     		str	r2, [r0, #24]
  65:Src/adc.c     ****   hadc1.Init.DiscontinuousConvMode = DISABLE;
  54              		.loc 1 65 0
  55 0016 0362     		str	r3, [r0, #32]
  66:Src/adc.c     ****   hadc1.Init.ExternalTrigConvEdge = ADC_EXTERNALTRIGCONVEDGE_NONE;
  56              		.loc 1 66 0
  57 0018 C362     		str	r3, [r0, #44]
  67:Src/adc.c     ****   hadc1.Init.ExternalTrigConv = ADC_SOFTWARE_START;
  58              		.loc 1 67 0
  59 001a 1849     		ldr	r1, .L6+8
  60 001c 8162     		str	r1, [r0, #40]
  68:Src/adc.c     ****   hadc1.Init.DataAlign = ADC_DATAALIGN_RIGHT;
  61              		.loc 1 68 0
  62 001e C360     		str	r3, [r0, #12]
  69:Src/adc.c     ****   hadc1.Init.NbrOfConversion = 2;
  63              		.loc 1 69 0
  64 0020 0223     		movs	r3, #2
  65 0022 C361     		str	r3, [r0, #28]
  70:Src/adc.c     ****   hadc1.Init.DMAContinuousRequests = ENABLE;
  66              		.loc 1 70 0
  67 0024 0263     		str	r2, [r0, #48]
  71:Src/adc.c     ****   hadc1.Init.EOCSelection = ADC_EOC_SINGLE_CONV;
  68              		.loc 1 71 0
  69 0026 4261     		str	r2, [r0, #20]
  72:Src/adc.c     ****   if (HAL_ADC_Init(&hadc1) != HAL_OK)
  70              		.loc 1 72 0
  71 0028 FFF7FEFF 		bl	HAL_ADC_Init
  72              	.LVL0:
  73 002c 18B1     		cbz	r0, .L2
  73:Src/adc.c     ****   {
  74:Src/adc.c     ****     _Error_Handler(__FILE__, __LINE__);
  74              		.loc 1 74 0
  75 002e 1448     		ldr	r0, .L6+12
  76 0030 4A21     		movs	r1, #74
  77 0032 FFF7FEFF 		bl	_Error_Handler
  78              	.LVL1:
  79              	.L2:
  75:Src/adc.c     ****   }
  76:Src/adc.c     **** 
  77:Src/adc.c     ****     /**Configure for the selected ADC regular channel its corresponding rank in the sequencer and i
  78:Src/adc.c     ****     */
  79:Src/adc.c     ****   sConfig.Channel = ADC_CHANNEL_5;
  80              		.loc 1 79 0
  81 0036 0523     		movs	r3, #5
  82 0038 0093     		str	r3, [sp]
  80:Src/adc.c     ****   sConfig.Rank = 1;
  83              		.loc 1 80 0
  84 003a 0123     		movs	r3, #1
  85 003c 0193     		str	r3, [sp, #4]
  81:Src/adc.c     ****   sConfig.SamplingTime = ADC_SAMPLETIME_480CYCLES;
  86              		.loc 1 81 0
  87 003e 0723     		movs	r3, #7
  88 0040 0293     		str	r3, [sp, #8]
  82:Src/adc.c     ****   if (HAL_ADC_ConfigChannel(&hadc1, &sConfig) != HAL_OK)
  89              		.loc 1 82 0
  90 0042 0C48     		ldr	r0, .L6
ARM GAS  /var/folders/68/n33lqcg953z5y1x0pvkj58xc0000gn/T//ccVO6lac.s 			page 4


  91 0044 6946     		mov	r1, sp
  92 0046 FFF7FEFF 		bl	HAL_ADC_ConfigChannel
  93              	.LVL2:
  94 004a 18B1     		cbz	r0, .L3
  83:Src/adc.c     ****   {
  84:Src/adc.c     ****     _Error_Handler(__FILE__, __LINE__);
  95              		.loc 1 84 0
  96 004c 0C48     		ldr	r0, .L6+12
  97 004e 5421     		movs	r1, #84
  98 0050 FFF7FEFF 		bl	_Error_Handler
  99              	.LVL3:
 100              	.L3:
  85:Src/adc.c     ****   }
  86:Src/adc.c     **** 
  87:Src/adc.c     ****     /**Configure for the selected ADC regular channel its corresponding rank in the sequencer and i
  88:Src/adc.c     ****     */
  89:Src/adc.c     ****   sConfig.Channel = ADC_CHANNEL_4;
 101              		.loc 1 89 0
 102 0054 0423     		movs	r3, #4
 103 0056 0093     		str	r3, [sp]
  90:Src/adc.c     ****   sConfig.Rank = 2;
 104              		.loc 1 90 0
 105 0058 0223     		movs	r3, #2
 106 005a 0193     		str	r3, [sp, #4]
  91:Src/adc.c     ****   if (HAL_ADC_ConfigChannel(&hadc1, &sConfig) != HAL_OK)
 107              		.loc 1 91 0
 108 005c 0548     		ldr	r0, .L6
 109 005e 6946     		mov	r1, sp
 110 0060 FFF7FEFF 		bl	HAL_ADC_ConfigChannel
 111              	.LVL4:
 112 0064 18B1     		cbz	r0, .L1
  92:Src/adc.c     ****   {
  93:Src/adc.c     ****     _Error_Handler(__FILE__, __LINE__);
 113              		.loc 1 93 0
 114 0066 0648     		ldr	r0, .L6+12
 115 0068 5D21     		movs	r1, #93
 116 006a FFF7FEFF 		bl	_Error_Handler
 117              	.LVL5:
 118              	.L1:
  94:Src/adc.c     ****   }
  95:Src/adc.c     **** 
  96:Src/adc.c     **** }
 119              		.loc 1 96 0
 120 006e 05B0     		add	sp, sp, #20
 121              	.LCFI2:
 122              		.cfi_def_cfa_offset 4
 123              		@ sp needed
 124 0070 5DF804FB 		ldr	pc, [sp], #4
 125              	.L7:
 126              		.align	2
 127              	.L6:
 128 0074 00000000 		.word	hadc1
 129 0078 00200140 		.word	1073815552
 130 007c 0100000F 		.word	251658241
 131 0080 00000000 		.word	.LC0
 132              		.cfi_endproc
 133              	.LFE123:
ARM GAS  /var/folders/68/n33lqcg953z5y1x0pvkj58xc0000gn/T//ccVO6lac.s 			page 5


 135              		.section	.text.HAL_ADC_MspInit,"ax",%progbits
 136              		.align	2
 137              		.global	HAL_ADC_MspInit
 138              		.thumb
 139              		.thumb_func
 141              	HAL_ADC_MspInit:
 142              	.LFB124:
  97:Src/adc.c     **** 
  98:Src/adc.c     **** void HAL_ADC_MspInit(ADC_HandleTypeDef* adcHandle)
  99:Src/adc.c     **** {
 143              		.loc 1 99 0
 144              		.cfi_startproc
 145              		@ args = 0, pretend = 0, frame = 24
 146              		@ frame_needed = 0, uses_anonymous_args = 0
 147              	.LVL6:
 100:Src/adc.c     **** 
 101:Src/adc.c     ****   GPIO_InitTypeDef GPIO_InitStruct;
 102:Src/adc.c     ****   if(adcHandle->Instance==ADC1)
 148              		.loc 1 102 0
 149 0000 0268     		ldr	r2, [r0]
 150 0002 2A4B     		ldr	r3, .L13
 151 0004 9A42     		cmp	r2, r3
 152 0006 50D1     		bne	.L12
  99:Src/adc.c     **** 
 153              		.loc 1 99 0
 154 0008 70B5     		push	{r4, r5, r6, lr}
 155              	.LCFI3:
 156              		.cfi_def_cfa_offset 16
 157              		.cfi_offset 4, -16
 158              		.cfi_offset 5, -12
 159              		.cfi_offset 6, -8
 160              		.cfi_offset 14, -4
 161 000a 86B0     		sub	sp, sp, #24
 162              	.LCFI4:
 163              		.cfi_def_cfa_offset 40
 164 000c 0446     		mov	r4, r0
 165              	.LBB2:
 103:Src/adc.c     ****   {
 104:Src/adc.c     ****   /* USER CODE BEGIN ADC1_MspInit 0 */
 105:Src/adc.c     **** 
 106:Src/adc.c     ****   /* USER CODE END ADC1_MspInit 0 */
 107:Src/adc.c     ****     /* ADC1 clock enable */
 108:Src/adc.c     ****     __HAL_RCC_ADC1_CLK_ENABLE();
 166              		.loc 1 108 0
 167 000e 0025     		movs	r5, #0
 168 0010 0095     		str	r5, [sp]
 169 0012 03F58C33 		add	r3, r3, #71680
 170 0016 5A6C     		ldr	r2, [r3, #68]
 171 0018 42F48072 		orr	r2, r2, #256
 172 001c 5A64     		str	r2, [r3, #68]
 173 001e 5B6C     		ldr	r3, [r3, #68]
 174 0020 03F48073 		and	r3, r3, #256
 175 0024 0093     		str	r3, [sp]
 176 0026 009B     		ldr	r3, [sp]
 177              	.LBE2:
 109:Src/adc.c     ****   
 110:Src/adc.c     ****     /**ADC1 GPIO Configuration    
ARM GAS  /var/folders/68/n33lqcg953z5y1x0pvkj58xc0000gn/T//ccVO6lac.s 			page 6


 111:Src/adc.c     ****     PC2     ------> ADC1_IN12
 112:Src/adc.c     ****     PA4     ------> ADC1_IN4
 113:Src/adc.c     ****     PA5     ------> ADC1_IN5
 114:Src/adc.c     ****     PC4     ------> ADC1_IN14
 115:Src/adc.c     ****     PC5     ------> ADC1_IN15
 116:Src/adc.c     ****     PB1     ------> ADC1_IN9 
 117:Src/adc.c     ****     */
 118:Src/adc.c     ****     GPIO_InitStruct.Pin = TL_Pin|TR_Pin|EL_Pin;
 178              		.loc 1 118 0
 179 0028 3423     		movs	r3, #52
 180 002a 0193     		str	r3, [sp, #4]
 119:Src/adc.c     ****     GPIO_InitStruct.Mode = GPIO_MODE_ANALOG;
 181              		.loc 1 119 0
 182 002c 0326     		movs	r6, #3
 183 002e 0296     		str	r6, [sp, #8]
 120:Src/adc.c     ****     GPIO_InitStruct.Pull = GPIO_NOPULL;
 184              		.loc 1 120 0
 185 0030 0395     		str	r5, [sp, #12]
 121:Src/adc.c     ****     HAL_GPIO_Init(GPIOC, &GPIO_InitStruct);
 186              		.loc 1 121 0
 187 0032 1F48     		ldr	r0, .L13+4
 188              	.LVL7:
 189 0034 01A9     		add	r1, sp, #4
 190 0036 FFF7FEFF 		bl	HAL_GPIO_Init
 191              	.LVL8:
 122:Src/adc.c     **** 
 123:Src/adc.c     ****     GPIO_InitStruct.Pin = PI_ANALOG_Pin|IR_1_Pin;
 192              		.loc 1 123 0
 193 003a 3023     		movs	r3, #48
 194 003c 0193     		str	r3, [sp, #4]
 124:Src/adc.c     ****     GPIO_InitStruct.Mode = GPIO_MODE_ANALOG;
 195              		.loc 1 124 0
 196 003e 0296     		str	r6, [sp, #8]
 125:Src/adc.c     ****     GPIO_InitStruct.Pull = GPIO_NOPULL;
 197              		.loc 1 125 0
 198 0040 0395     		str	r5, [sp, #12]
 126:Src/adc.c     ****     HAL_GPIO_Init(GPIOA, &GPIO_InitStruct);
 199              		.loc 1 126 0
 200 0042 1C48     		ldr	r0, .L13+8
 201 0044 01A9     		add	r1, sp, #4
 202 0046 FFF7FEFF 		bl	HAL_GPIO_Init
 203              	.LVL9:
 127:Src/adc.c     **** 
 128:Src/adc.c     ****     GPIO_InitStruct.Pin = ER_Pin;
 204              		.loc 1 128 0
 205 004a 0223     		movs	r3, #2
 206 004c 0193     		str	r3, [sp, #4]
 129:Src/adc.c     ****     GPIO_InitStruct.Mode = GPIO_MODE_ANALOG;
 207              		.loc 1 129 0
 208 004e 0296     		str	r6, [sp, #8]
 130:Src/adc.c     ****     GPIO_InitStruct.Pull = GPIO_NOPULL;
 209              		.loc 1 130 0
 210 0050 0395     		str	r5, [sp, #12]
 131:Src/adc.c     ****     HAL_GPIO_Init(ER_GPIO_Port, &GPIO_InitStruct);
 211              		.loc 1 131 0
 212 0052 1948     		ldr	r0, .L13+12
 213 0054 01A9     		add	r1, sp, #4
ARM GAS  /var/folders/68/n33lqcg953z5y1x0pvkj58xc0000gn/T//ccVO6lac.s 			page 7


 214 0056 FFF7FEFF 		bl	HAL_GPIO_Init
 215              	.LVL10:
 132:Src/adc.c     **** 
 133:Src/adc.c     ****     /* ADC1 DMA Init */
 134:Src/adc.c     ****     /* ADC1 Init */
 135:Src/adc.c     ****     hdma_adc1.Instance = DMA2_Stream0;
 216              		.loc 1 135 0
 217 005a 1848     		ldr	r0, .L13+16
 218 005c 184B     		ldr	r3, .L13+20
 219 005e 0360     		str	r3, [r0]
 136:Src/adc.c     ****     hdma_adc1.Init.Channel = DMA_CHANNEL_0;
 220              		.loc 1 136 0
 221 0060 4560     		str	r5, [r0, #4]
 137:Src/adc.c     ****     hdma_adc1.Init.Direction = DMA_PERIPH_TO_MEMORY;
 222              		.loc 1 137 0
 223 0062 8560     		str	r5, [r0, #8]
 138:Src/adc.c     ****     hdma_adc1.Init.PeriphInc = DMA_PINC_DISABLE;
 224              		.loc 1 138 0
 225 0064 C560     		str	r5, [r0, #12]
 139:Src/adc.c     ****     hdma_adc1.Init.MemInc = DMA_MINC_ENABLE;
 226              		.loc 1 139 0
 227 0066 4FF48063 		mov	r3, #1024
 228 006a 0361     		str	r3, [r0, #16]
 140:Src/adc.c     ****     hdma_adc1.Init.PeriphDataAlignment = DMA_PDATAALIGN_WORD;
 229              		.loc 1 140 0
 230 006c 4FF48053 		mov	r3, #4096
 231 0070 4361     		str	r3, [r0, #20]
 141:Src/adc.c     ****     hdma_adc1.Init.MemDataAlignment = DMA_MDATAALIGN_WORD;
 232              		.loc 1 141 0
 233 0072 4FF48043 		mov	r3, #16384
 234 0076 8361     		str	r3, [r0, #24]
 142:Src/adc.c     ****     hdma_adc1.Init.Mode = DMA_CIRCULAR;
 235              		.loc 1 142 0
 236 0078 4FF48073 		mov	r3, #256
 237 007c C361     		str	r3, [r0, #28]
 143:Src/adc.c     ****     hdma_adc1.Init.Priority = DMA_PRIORITY_LOW;
 238              		.loc 1 143 0
 239 007e 0562     		str	r5, [r0, #32]
 144:Src/adc.c     ****     hdma_adc1.Init.FIFOMode = DMA_FIFOMODE_DISABLE;
 240              		.loc 1 144 0
 241 0080 4562     		str	r5, [r0, #36]
 145:Src/adc.c     ****     if (HAL_DMA_Init(&hdma_adc1) != HAL_OK)
 242              		.loc 1 145 0
 243 0082 FFF7FEFF 		bl	HAL_DMA_Init
 244              	.LVL11:
 245 0086 18B1     		cbz	r0, .L10
 146:Src/adc.c     ****     {
 147:Src/adc.c     ****       _Error_Handler(__FILE__, __LINE__);
 246              		.loc 1 147 0
 247 0088 0E48     		ldr	r0, .L13+24
 248 008a 9321     		movs	r1, #147
 249 008c FFF7FEFF 		bl	_Error_Handler
 250              	.LVL12:
 251              	.L10:
 148:Src/adc.c     ****     }
 149:Src/adc.c     **** 
 150:Src/adc.c     ****     __HAL_LINKDMA(adcHandle,DMA_Handle,hdma_adc1);
ARM GAS  /var/folders/68/n33lqcg953z5y1x0pvkj58xc0000gn/T//ccVO6lac.s 			page 8


 252              		.loc 1 150 0
 253 0090 0A4B     		ldr	r3, .L13+16
 254 0092 A363     		str	r3, [r4, #56]
 255 0094 9C63     		str	r4, [r3, #56]
 151:Src/adc.c     **** 
 152:Src/adc.c     ****     /* ADC1 interrupt Init */
 153:Src/adc.c     ****     HAL_NVIC_SetPriority(ADC_IRQn, 0, 0);
 256              		.loc 1 153 0
 257 0096 1220     		movs	r0, #18
 258 0098 0021     		movs	r1, #0
 259 009a 0A46     		mov	r2, r1
 260 009c FFF7FEFF 		bl	HAL_NVIC_SetPriority
 261              	.LVL13:
 154:Src/adc.c     ****     HAL_NVIC_EnableIRQ(ADC_IRQn);
 262              		.loc 1 154 0
 263 00a0 1220     		movs	r0, #18
 264 00a2 FFF7FEFF 		bl	HAL_NVIC_EnableIRQ
 265              	.LVL14:
 155:Src/adc.c     ****   /* USER CODE BEGIN ADC1_MspInit 1 */
 156:Src/adc.c     **** 
 157:Src/adc.c     ****   /* USER CODE END ADC1_MspInit 1 */
 158:Src/adc.c     ****   }
 159:Src/adc.c     **** }
 266              		.loc 1 159 0
 267 00a6 06B0     		add	sp, sp, #24
 268              	.LCFI5:
 269              		.cfi_def_cfa_offset 16
 270              		@ sp needed
 271 00a8 70BD     		pop	{r4, r5, r6, pc}
 272              	.LVL15:
 273              	.L12:
 274              	.LCFI6:
 275              		.cfi_def_cfa_offset 0
 276              		.cfi_restore 4
 277              		.cfi_restore 5
 278              		.cfi_restore 6
 279              		.cfi_restore 14
 280 00aa 7047     		bx	lr
 281              	.L14:
 282              		.align	2
 283              	.L13:
 284 00ac 00200140 		.word	1073815552
 285 00b0 00080240 		.word	1073874944
 286 00b4 00000240 		.word	1073872896
 287 00b8 00040240 		.word	1073873920
 288 00bc 00000000 		.word	hdma_adc1
 289 00c0 10640240 		.word	1073898512
 290 00c4 00000000 		.word	.LC0
 291              		.cfi_endproc
 292              	.LFE124:
 294              		.section	.text.HAL_ADC_MspDeInit,"ax",%progbits
 295              		.align	2
 296              		.global	HAL_ADC_MspDeInit
 297              		.thumb
 298              		.thumb_func
 300              	HAL_ADC_MspDeInit:
 301              	.LFB125:
ARM GAS  /var/folders/68/n33lqcg953z5y1x0pvkj58xc0000gn/T//ccVO6lac.s 			page 9


 160:Src/adc.c     **** 
 161:Src/adc.c     **** void HAL_ADC_MspDeInit(ADC_HandleTypeDef* adcHandle)
 162:Src/adc.c     **** {
 302              		.loc 1 162 0
 303              		.cfi_startproc
 304              		@ args = 0, pretend = 0, frame = 0
 305              		@ frame_needed = 0, uses_anonymous_args = 0
 306              	.LVL16:
 163:Src/adc.c     **** 
 164:Src/adc.c     ****   if(adcHandle->Instance==ADC1)
 307              		.loc 1 164 0
 308 0000 0268     		ldr	r2, [r0]
 309 0002 0F4B     		ldr	r3, .L19
 310 0004 9A42     		cmp	r2, r3
 311 0006 19D1     		bne	.L18
 162:Src/adc.c     **** 
 312              		.loc 1 162 0
 313 0008 10B5     		push	{r4, lr}
 314              	.LCFI7:
 315              		.cfi_def_cfa_offset 8
 316              		.cfi_offset 4, -8
 317              		.cfi_offset 14, -4
 318 000a 0446     		mov	r4, r0
 165:Src/adc.c     ****   {
 166:Src/adc.c     ****   /* USER CODE BEGIN ADC1_MspDeInit 0 */
 167:Src/adc.c     **** 
 168:Src/adc.c     ****   /* USER CODE END ADC1_MspDeInit 0 */
 169:Src/adc.c     ****     /* Peripheral clock disable */
 170:Src/adc.c     ****     __HAL_RCC_ADC1_CLK_DISABLE();
 319              		.loc 1 170 0
 320 000c 0D4A     		ldr	r2, .L19+4
 321 000e 536C     		ldr	r3, [r2, #68]
 322 0010 23F48073 		bic	r3, r3, #256
 323 0014 5364     		str	r3, [r2, #68]
 171:Src/adc.c     ****   
 172:Src/adc.c     ****     /**ADC1 GPIO Configuration    
 173:Src/adc.c     ****     PC2     ------> ADC1_IN12
 174:Src/adc.c     ****     PA4     ------> ADC1_IN4
 175:Src/adc.c     ****     PA5     ------> ADC1_IN5
 176:Src/adc.c     ****     PC4     ------> ADC1_IN14
 177:Src/adc.c     ****     PC5     ------> ADC1_IN15
 178:Src/adc.c     ****     PB1     ------> ADC1_IN9 
 179:Src/adc.c     ****     */
 180:Src/adc.c     ****     HAL_GPIO_DeInit(GPIOC, TL_Pin|TR_Pin|EL_Pin);
 324              		.loc 1 180 0
 325 0016 0C48     		ldr	r0, .L19+8
 326              	.LVL17:
 327 0018 3421     		movs	r1, #52
 328 001a FFF7FEFF 		bl	HAL_GPIO_DeInit
 329              	.LVL18:
 181:Src/adc.c     **** 
 182:Src/adc.c     ****     HAL_GPIO_DeInit(GPIOA, PI_ANALOG_Pin|IR_1_Pin);
 330              		.loc 1 182 0
 331 001e 0B48     		ldr	r0, .L19+12
 332 0020 3021     		movs	r1, #48
 333 0022 FFF7FEFF 		bl	HAL_GPIO_DeInit
 334              	.LVL19:
ARM GAS  /var/folders/68/n33lqcg953z5y1x0pvkj58xc0000gn/T//ccVO6lac.s 			page 10


 183:Src/adc.c     **** 
 184:Src/adc.c     ****     HAL_GPIO_DeInit(ER_GPIO_Port, ER_Pin);
 335              		.loc 1 184 0
 336 0026 0A48     		ldr	r0, .L19+16
 337 0028 0221     		movs	r1, #2
 338 002a FFF7FEFF 		bl	HAL_GPIO_DeInit
 339              	.LVL20:
 185:Src/adc.c     **** 
 186:Src/adc.c     ****     /* ADC1 DMA DeInit */
 187:Src/adc.c     ****     HAL_DMA_DeInit(adcHandle->DMA_Handle);
 340              		.loc 1 187 0
 341 002e A06B     		ldr	r0, [r4, #56]
 342 0030 FFF7FEFF 		bl	HAL_DMA_DeInit
 343              	.LVL21:
 188:Src/adc.c     **** 
 189:Src/adc.c     ****     /* ADC1 interrupt Deinit */
 190:Src/adc.c     ****     HAL_NVIC_DisableIRQ(ADC_IRQn);
 344              		.loc 1 190 0
 345 0034 1220     		movs	r0, #18
 346 0036 FFF7FEFF 		bl	HAL_NVIC_DisableIRQ
 347              	.LVL22:
 348 003a 10BD     		pop	{r4, pc}
 349              	.LVL23:
 350              	.L18:
 351              	.LCFI8:
 352              		.cfi_def_cfa_offset 0
 353              		.cfi_restore 4
 354              		.cfi_restore 14
 355 003c 7047     		bx	lr
 356              	.L20:
 357 003e 00BF     		.align	2
 358              	.L19:
 359 0040 00200140 		.word	1073815552
 360 0044 00380240 		.word	1073887232
 361 0048 00080240 		.word	1073874944
 362 004c 00000240 		.word	1073872896
 363 0050 00040240 		.word	1073873920
 364              		.cfi_endproc
 365              	.LFE125:
 367              		.comm	hdma_adc1,96,4
 368              		.comm	hadc1,72,4
 369              		.section	.rodata.str1.4,"aMS",%progbits,1
 370              		.align	2
 371              	.LC0:
 372 0000 5372632F 		.ascii	"Src/adc.c\000"
 372      6164632E 
 372      6300
 373              		.text
 374              	.Letext0:
 375              		.file 2 "Drivers/CMSIS/Device/ST/STM32F4xx/Include/stm32f401xe.h"
 376              		.file 3 "/usr/local/Cellar/arm-none-eabi-gcc/20150921/arm-none-eabi/include/machine/_default_types
 377              		.file 4 "/usr/local/Cellar/arm-none-eabi-gcc/20150921/arm-none-eabi/include/sys/_stdint.h"
 378              		.file 5 "Drivers/CMSIS/Device/ST/STM32F4xx/Include/stm32f4xx.h"
 379              		.file 6 "Drivers/STM32F4xx_HAL_Driver/Inc/stm32f4xx_hal_def.h"
 380              		.file 7 "Drivers/STM32F4xx_HAL_Driver/Inc/stm32f4xx_hal_gpio.h"
 381              		.file 8 "Drivers/STM32F4xx_HAL_Driver/Inc/stm32f4xx_hal_dma.h"
 382              		.file 9 "Drivers/STM32F4xx_HAL_Driver/Inc/stm32f4xx_hal_adc.h"
ARM GAS  /var/folders/68/n33lqcg953z5y1x0pvkj58xc0000gn/T//ccVO6lac.s 			page 11


 383              		.file 10 "Drivers/CMSIS/Include/core_cm4.h"
 384              		.file 11 "Inc/dma.h"
 385              		.file 12 "Drivers/STM32F4xx_HAL_Driver/Inc/stm32f4xx_hal_cortex.h"
ARM GAS  /var/folders/68/n33lqcg953z5y1x0pvkj58xc0000gn/T//ccVO6lac.s 			page 12

