ARM GAS  /var/folders/1t/b_pdlv_14gngm6ztkcy5zjlw0000gn/T//cc4UJRc4.s 			page 1


   1              		.syntax unified
   2              		.cpu cortex-m4
   3              		.eabi_attribute 27, 1
   4              		.eabi_attribute 28, 1
   5              		.fpu fpv4-sp-d16
   6              		.eabi_attribute 20, 1
   7              		.eabi_attribute 21, 1
   8              		.eabi_attribute 23, 3
   9              		.eabi_attribute 24, 1
  10              		.eabi_attribute 25, 1
  11              		.eabi_attribute 26, 1
  12              		.eabi_attribute 30, 1
  13              		.eabi_attribute 34, 1
  14              		.eabi_attribute 18, 4
  15              		.thumb
  16              		.file	"encoder.c"
  17              		.text
  18              	.Ltext0:
  19              		.cfi_sections	.debug_frame
  20              		.section	.text.encoder_Init,"ax",%progbits
  21              		.align	2
  22              		.global	encoder_Init
  23              		.thumb
  24              		.thumb_func
  26              	encoder_Init:
  27              	.LFB123:
  28              		.file 1 "Src/encoder.c"
   1:Src/encoder.c **** #include"encoder.h"
   2:Src/encoder.c **** 
   3:Src/encoder.c **** /**
   4:Src/encoder.c ****  * @brief structure use to store and calculate rotating speed of encoder
   5:Src/encoder.c ****  * @param htim, internal timer used for counting encoder
   6:Src/encoder.c ****  * @retval initialized struct
   7:Src/encoder.c ****  */
   8:Src/encoder.c **** ENCODER_t encoder_Init(TIM_TypeDef *htim){
  29              		.loc 1 8 0
  30              		.cfi_startproc
  31              		@ args = 0, pretend = 0, frame = 0
  32              		@ frame_needed = 0, uses_anonymous_args = 0
  33              		@ link register save eliminated.
  34              	.LVL0:
   9:Src/encoder.c ****     ENCODER_t enc;
  10:Src/encoder.c ****     enc.cnt = 0;
  35              		.loc 1 10 0
  36 0000 0022     		movs	r2, #0
  37 0002 0280     		strh	r2, [r0]	@ movhi
  11:Src/encoder.c ****     enc.time = 0;
  38              		.loc 1 11 0
  39 0004 4280     		strh	r2, [r0, #2]	@ movhi
  12:Src/encoder.c ****     enc.speed = 0.0;
  40              		.loc 1 12 0
  41 0006 0022     		movs	r2, #0
  42 0008 4260     		str	r2, [r0, #4]	@ float
  13:Src/encoder.c ****     enc.tim = htim;
  43              		.loc 1 13 0
  44 000a 8160     		str	r1, [r0, #8]
  14:Src/encoder.c ****     return enc;    
ARM GAS  /var/folders/1t/b_pdlv_14gngm6ztkcy5zjlw0000gn/T//cc4UJRc4.s 			page 2


  15:Src/encoder.c **** }
  45              		.loc 1 15 0
  46 000c 7047     		bx	lr
  47              		.cfi_endproc
  48              	.LFE123:
  50 000e 00BF     		.section	.text.update_encoder,"ax",%progbits
  51              		.align	2
  52              		.global	update_encoder
  53              		.thumb
  54              		.thumb_func
  56              	update_encoder:
  57              	.LFB124:
  16:Src/encoder.c **** 
  17:Src/encoder.c **** /**
  18:Src/encoder.c ****  * @brief
  19:Src/encoder.c ****  * 16 bit uint for 16 bit timer
  20:Src/encoder.c ****  * 16 bit uint for 16 bit count value
  21:Src/encoder.c ****  * GetTick returns milliseconds
  22:Src/encoder.c ****  * Angular velocity w = 2*pi*n/(N*t)*R
  23:Src/encoder.c ****  * n: number of encoder counts
  24:Src/encoder.c ****  * N: number of encoder counts in revolution
  25:Src/encoder.c ****  * t: time
  26:Src/encoder.c ****  * R: radius
  27:Src/encoder.c ****  *
  28:Src/encoder.c ****  *  dt is number of clock ticks, need to convert to time.
  29:Src/encoder.c ****  *
  30:Src/encoder.c ****  * @param   pointer to encoder struct
  31:Src/encoder.c ****  * @param   pointer to encoder timer handle
  32:Src/encoder.c ****  * @modifies    speed stored in struct
  33:Src/encoder.c ****  * @retval    speed
  34:Src/encoder.c ****  **/
  35:Src/encoder.c **** float update_encoder(ENCODER_t *enc){
  58              		.loc 1 35 0
  59              		.cfi_startproc
  60              		@ args = 0, pretend = 0, frame = 0
  61              		@ frame_needed = 0, uses_anonymous_args = 0
  62              	.LVL1:
  63 0000 38B5     		push	{r3, r4, r5, lr}
  64              	.LCFI0:
  65              		.cfi_def_cfa_offset 16
  66              		.cfi_offset 3, -16
  67              		.cfi_offset 4, -12
  68              		.cfi_offset 5, -8
  69              		.cfi_offset 14, -4
  70 0002 0446     		mov	r4, r0
  36:Src/encoder.c ****     uint16_t temp_time = HAL_GetTick();
  71              		.loc 1 36 0
  72 0004 FFF7FEFF 		bl	HAL_GetTick
  73              	.LVL2:
  74 0008 80B2     		uxth	r0, r0
  75              	.LVL3:
  37:Src/encoder.c ****     uint16_t temp_cnt = (enc->tim)->CNT;
  76              		.loc 1 37 0
  77 000a A368     		ldr	r3, [r4, #8]
  78 000c 5B6A     		ldr	r3, [r3, #36]
  79 000e 99B2     		uxth	r1, r3
  80              	.LVL4:
ARM GAS  /var/folders/1t/b_pdlv_14gngm6ztkcy5zjlw0000gn/T//cc4UJRc4.s 			page 3


  38:Src/encoder.c ****     int16_t d_cnt;
  39:Src/encoder.c ****     uint16_t d_t = temp_time - enc->time;
  81              		.loc 1 39 0
  82 0010 6588     		ldrh	r5, [r4, #2]
  83 0012 451B     		subs	r5, r0, r5
  84 0014 ADB2     		uxth	r5, r5
  85              	.LVL5:
  40:Src/encoder.c ****     //uint8_t dt = temp_time - time;
  41:Src/encoder.c ****     if(enc->speed>0 && temp_cnt<enc->cnt){
  86              		.loc 1 41 0
  87 0016 D4ED017A 		flds	s15, [r4, #4]
  88 001a F5EEC07A 		fcmpezs	s15
  89 001e F1EE10FA 		fmstat
  90 0022 05DD     		ble	.L3
  91              		.loc 1 41 0 is_stmt 0 discriminator 1
  92 0024 2288     		ldrh	r2, [r4]
  93 0026 8A42     		cmp	r2, r1
  94 0028 02D9     		bls	.L3
  42:Src/encoder.c ****         d_cnt = temp_cnt+1+(enc->cnt^65535);
  95              		.loc 1 42 0 is_stmt 1
  96 002a 8B1A     		subs	r3, r1, r2
  97 002c 9BB2     		uxth	r3, r3
  98              	.LVL6:
  99 002e 2AE0     		b	.L5
 100              	.LVL7:
 101              	.L3:
  43:Src/encoder.c ****     }else if(enc->speed<0 && temp_cnt>enc->cnt){
 102              		.loc 1 43 0
 103 0030 F5EEC07A 		fcmpezs	s15
 104 0034 F1EE10FA 		fmstat
 105 0038 05D5     		bpl	.L6
 106              		.loc 1 43 0 is_stmt 0 discriminator 1
 107 003a 2288     		ldrh	r2, [r4]
 108 003c 8A42     		cmp	r2, r1
 109 003e 02D2     		bcs	.L6
  44:Src/encoder.c ****         d_cnt = -(enc->cnt+1+(temp_cnt^65535));
 110              		.loc 1 44 0 is_stmt 1
 111 0040 8A1A     		subs	r2, r1, r2
 112 0042 93B2     		uxth	r3, r2
 113              	.LVL8:
 114 0044 1FE0     		b	.L5
 115              	.LVL9:
 116              	.L6:
  45:Src/encoder.c ****     }else if(temp_cnt>65000 && enc->cnt == 0 && enc->speed==0){
 117              		.loc 1 45 0
 118 0046 4FF6E852 		movw	r2, #65000
 119 004a 9142     		cmp	r1, r2
 120 004c 08D9     		bls	.L8
 121              		.loc 1 45 0 is_stmt 0 discriminator 1
 122 004e 2288     		ldrh	r2, [r4]
 123 0050 32B9     		cbnz	r2, .L8
 124              		.loc 1 45 0 discriminator 2
 125 0052 F5EE407A 		fcmpzs	s15
 126 0056 F1EE10FA 		fmstat
 127 005a 01D1     		bne	.L8
  46:Src/encoder.c ****         d_cnt = -(1+(temp_cnt^65535));
 128              		.loc 1 46 0 is_stmt 1
ARM GAS  /var/folders/1t/b_pdlv_14gngm6ztkcy5zjlw0000gn/T//cc4UJRc4.s 			page 4


 129 005c 9BB2     		uxth	r3, r3
 130              	.LVL10:
 131 005e 12E0     		b	.L5
 132              	.LVL11:
 133              	.L8:
  47:Src/encoder.c ****     }else if(temp_cnt<500 && enc->cnt == 65535 && enc->speed==0){
 134              		.loc 1 47 0
 135 0060 B1F5FA7F 		cmp	r1, #500
 136 0064 0CD2     		bcs	.L9
 137              		.loc 1 47 0 is_stmt 0 discriminator 1
 138 0066 2288     		ldrh	r2, [r4]
 139 0068 4FF6FF73 		movw	r3, #65535
 140 006c 9A42     		cmp	r2, r3
 141 006e 07D1     		bne	.L9
 142              		.loc 1 47 0 discriminator 2
 143 0070 F5EE407A 		fcmpzs	s15
 144 0074 F1EE10FA 		fmstat
 145 0078 02D1     		bne	.L9
  48:Src/encoder.c ****         d_cnt = 1+temp_cnt;
 146              		.loc 1 48 0 is_stmt 1
 147 007a 4A1C     		adds	r2, r1, #1
 148 007c 93B2     		uxth	r3, r2
 149              	.LVL12:
 150 007e 02E0     		b	.L5
 151              	.LVL13:
 152              	.L9:
  49:Src/encoder.c ****     }else{
  50:Src/encoder.c ****         d_cnt = temp_cnt - enc->cnt;
 153              		.loc 1 50 0
 154 0080 2388     		ldrh	r3, [r4]
 155 0082 CB1A     		subs	r3, r1, r3
 156 0084 9BB2     		uxth	r3, r3
 157              	.LVL14:
 158              	.L5:
  51:Src/encoder.c ****     }
  52:Src/encoder.c ****     enc->speed = d_cnt/(ENCODER_N*d_t)*ENCODER_R;
 159              		.loc 1 52 0
 160 0086 6422     		movs	r2, #100
 161 0088 02FB05F5 		mul	r5, r2, r5
 162              	.LVL15:
 163 008c 1BB2     		sxth	r3, r3
 164 008e 93FBF5F3 		sdiv	r3, r3, r5
 165              	.LVL16:
 166 0092 4FF47A72 		mov	r2, #1000
 167 0096 02FB03F3 		mul	r3, r2, r3
 168 009a 07EE903A 		fmsr	s15, r3	@ int
 169 009e B8EEE70A 		fsitos	s0, s15
 170 00a2 84ED010A 		fsts	s0, [r4, #4]
  53:Src/encoder.c ****     enc->cnt = temp_cnt;
 171              		.loc 1 53 0
 172 00a6 2180     		strh	r1, [r4]	@ movhi
  54:Src/encoder.c ****     enc->time = temp_time; 
 173              		.loc 1 54 0
 174 00a8 6080     		strh	r0, [r4, #2]	@ movhi
 175              	.LVL17:
  55:Src/encoder.c ****     return enc->speed;
  56:Src/encoder.c **** }
ARM GAS  /var/folders/1t/b_pdlv_14gngm6ztkcy5zjlw0000gn/T//cc4UJRc4.s 			page 5


 176              		.loc 1 56 0
 177 00aa 38BD     		pop	{r3, r4, r5, pc}
 178              		.cfi_endproc
 179              	.LFE124:
 181              		.text
 182              	.Letext0:
 183              		.file 2 "/usr/local/Cellar/arm-none-eabi-gcc/20150921/arm-none-eabi/include/machine/_default_types
 184              		.file 3 "/usr/local/Cellar/arm-none-eabi-gcc/20150921/arm-none-eabi/include/sys/_stdint.h"
 185              		.file 4 "Drivers/CMSIS/Device/ST/STM32F4xx/Include/stm32f401xe.h"
 186              		.file 5 "Inc/encoder.h"
 187              		.file 6 "Drivers/CMSIS/Include/core_cm4.h"
 188              		.file 7 "Drivers/STM32F4xx_HAL_Driver/Inc/stm32f4xx_hal.h"
ARM GAS  /var/folders/1t/b_pdlv_14gngm6ztkcy5zjlw0000gn/T//cc4UJRc4.s 			page 6


DEFINED SYMBOLS
                            *ABS*:0000000000000000 encoder.c
/var/folders/1t/b_pdlv_14gngm6ztkcy5zjlw0000gn/T//cc4UJRc4.s:21     .text.encoder_Init:0000000000000000 $t
/var/folders/1t/b_pdlv_14gngm6ztkcy5zjlw0000gn/T//cc4UJRc4.s:26     .text.encoder_Init:0000000000000000 encoder_Init
/var/folders/1t/b_pdlv_14gngm6ztkcy5zjlw0000gn/T//cc4UJRc4.s:51     .text.update_encoder:0000000000000000 $t
/var/folders/1t/b_pdlv_14gngm6ztkcy5zjlw0000gn/T//cc4UJRc4.s:56     .text.update_encoder:0000000000000000 update_encoder
                     .debug_frame:0000000000000010 $d

UNDEFINED SYMBOLS
HAL_GetTick
