ARM GAS  /var/folders/68/n33lqcg953z5y1x0pvkj58xc0000gn/T//ccLCRjID.s 			page 1


   1              		.syntax unified
   2              		.cpu cortex-m4
   3              		.eabi_attribute 27, 1
   4              		.eabi_attribute 28, 1
   5              		.fpu fpv4-sp-d16
   6              		.eabi_attribute 20, 1
   7              		.eabi_attribute 21, 1
   8              		.eabi_attribute 23, 3
   9              		.eabi_attribute 24, 1
  10              		.eabi_attribute 25, 1
  11              		.eabi_attribute 26, 1
  12              		.eabi_attribute 30, 1
  13              		.eabi_attribute 34, 1
  14              		.eabi_attribute 18, 4
  15              		.thumb
  16              		.file	"gpio.c"
  17              		.text
  18              	.Ltext0:
  19              		.cfi_sections	.debug_frame
  20              		.section	.text.MX_GPIO_Init,"ax",%progbits
  21              		.align	2
  22              		.global	MX_GPIO_Init
  23              		.thumb
  24              		.thumb_func
  26              	MX_GPIO_Init:
  27              	.LFB123:
  28              		.file 1 "Src/gpio.c"
   1:Src/gpio.c    **** /**
   2:Src/gpio.c    ****   ******************************************************************************
   3:Src/gpio.c    ****   * File Name          : gpio.c
   4:Src/gpio.c    ****   * Description        : This file provides code for the configuration
   5:Src/gpio.c    ****   *                      of all used GPIO pins.
   6:Src/gpio.c    ****   ******************************************************************************
   7:Src/gpio.c    ****   ** This notice applies to any and all portions of this file
   8:Src/gpio.c    ****   * that are not between comment pairs USER CODE BEGIN and
   9:Src/gpio.c    ****   * USER CODE END. Other portions of this file, whether 
  10:Src/gpio.c    ****   * inserted by the user or by software development tools
  11:Src/gpio.c    ****   * are owned by their respective copyright owners.
  12:Src/gpio.c    ****   *
  13:Src/gpio.c    ****   * COPYRIGHT(c) 2018 STMicroelectronics
  14:Src/gpio.c    ****   *
  15:Src/gpio.c    ****   * Redistribution and use in source and binary forms, with or without modification,
  16:Src/gpio.c    ****   * are permitted provided that the following conditions are met:
  17:Src/gpio.c    ****   *   1. Redistributions of source code must retain the above copyright notice,
  18:Src/gpio.c    ****   *      this list of conditions and the following disclaimer.
  19:Src/gpio.c    ****   *   2. Redistributions in binary form must reproduce the above copyright notice,
  20:Src/gpio.c    ****   *      this list of conditions and the following disclaimer in the documentation
  21:Src/gpio.c    ****   *      and/or other materials provided with the distribution.
  22:Src/gpio.c    ****   *   3. Neither the name of STMicroelectronics nor the names of its contributors
  23:Src/gpio.c    ****   *      may be used to endorse or promote products derived from this software
  24:Src/gpio.c    ****   *      without specific prior written permission.
  25:Src/gpio.c    ****   *
  26:Src/gpio.c    ****   * THIS SOFTWARE IS PROVIDED BY THE COPYRIGHT HOLDERS AND CONTRIBUTORS "AS IS"
  27:Src/gpio.c    ****   * AND ANY EXPRESS OR IMPLIED WARRANTIES, INCLUDING, BUT NOT LIMITED TO, THE
  28:Src/gpio.c    ****   * IMPLIED WARRANTIES OF MERCHANTABILITY AND FITNESS FOR A PARTICULAR PURPOSE ARE
  29:Src/gpio.c    ****   * DISCLAIMED. IN NO EVENT SHALL THE COPYRIGHT HOLDER OR CONTRIBUTORS BE LIABLE
  30:Src/gpio.c    ****   * FOR ANY DIRECT, INDIRECT, INCIDENTAL, SPECIAL, EXEMPLARY, OR CONSEQUENTIAL
ARM GAS  /var/folders/68/n33lqcg953z5y1x0pvkj58xc0000gn/T//ccLCRjID.s 			page 2


  31:Src/gpio.c    ****   * DAMAGES (INCLUDING, BUT NOT LIMITED TO, PROCUREMENT OF SUBSTITUTE GOODS OR
  32:Src/gpio.c    ****   * SERVICES; LOSS OF USE, DATA, OR PROFITS; OR BUSINESS INTERRUPTION) HOWEVER
  33:Src/gpio.c    ****   * CAUSED AND ON ANY THEORY OF LIABILITY, WHETHER IN CONTRACT, STRICT LIABILITY,
  34:Src/gpio.c    ****   * OR TORT (INCLUDING NEGLIGENCE OR OTHERWISE) ARISING IN ANY WAY OUT OF THE USE
  35:Src/gpio.c    ****   * OF THIS SOFTWARE, EVEN IF ADVISED OF THE POSSIBILITY OF SUCH DAMAGE.
  36:Src/gpio.c    ****   *
  37:Src/gpio.c    ****   ******************************************************************************
  38:Src/gpio.c    ****   */
  39:Src/gpio.c    **** 
  40:Src/gpio.c    **** /* Includes ------------------------------------------------------------------*/
  41:Src/gpio.c    **** #include "gpio.h"
  42:Src/gpio.c    **** /* USER CODE BEGIN 0 */
  43:Src/gpio.c    **** 
  44:Src/gpio.c    **** /* USER CODE END 0 */
  45:Src/gpio.c    **** 
  46:Src/gpio.c    **** /*----------------------------------------------------------------------------*/
  47:Src/gpio.c    **** /* Configure GPIO                                                             */
  48:Src/gpio.c    **** /*----------------------------------------------------------------------------*/
  49:Src/gpio.c    **** /* USER CODE BEGIN 1 */
  50:Src/gpio.c    **** 
  51:Src/gpio.c    **** /* USER CODE END 1 */
  52:Src/gpio.c    **** 
  53:Src/gpio.c    **** /** Configure pins as 
  54:Src/gpio.c    ****         * Analog 
  55:Src/gpio.c    ****         * Input 
  56:Src/gpio.c    ****         * Output
  57:Src/gpio.c    ****         * EVENT_OUT
  58:Src/gpio.c    ****         * EXTI
  59:Src/gpio.c    ****         * Free pins are configured automatically as Analog (this feature is enabled through 
  60:Src/gpio.c    ****         * the Code Generation settings)
  61:Src/gpio.c    **** */
  62:Src/gpio.c    **** void MX_GPIO_Init(void)
  63:Src/gpio.c    **** {
  29              		.loc 1 63 0
  30              		.cfi_startproc
  31              		@ args = 0, pretend = 0, frame = 40
  32              		@ frame_needed = 0, uses_anonymous_args = 0
  33 0000 2DE9F041 		push	{r4, r5, r6, r7, r8, lr}
  34              	.LCFI0:
  35              		.cfi_def_cfa_offset 24
  36              		.cfi_offset 4, -24
  37              		.cfi_offset 5, -20
  38              		.cfi_offset 6, -16
  39              		.cfi_offset 7, -12
  40              		.cfi_offset 8, -8
  41              		.cfi_offset 14, -4
  42 0004 8AB0     		sub	sp, sp, #40
  43              	.LCFI1:
  44              		.cfi_def_cfa_offset 64
  45              	.LBB2:
  64:Src/gpio.c    **** 
  65:Src/gpio.c    ****   GPIO_InitTypeDef GPIO_InitStruct;
  66:Src/gpio.c    **** 
  67:Src/gpio.c    ****   /* GPIO Ports Clock Enable */
  68:Src/gpio.c    ****   __HAL_RCC_GPIOC_CLK_ENABLE();
  46              		.loc 1 68 0
  47 0006 0024     		movs	r4, #0
ARM GAS  /var/folders/68/n33lqcg953z5y1x0pvkj58xc0000gn/T//ccLCRjID.s 			page 3


  48 0008 0094     		str	r4, [sp]
  49 000a 534B     		ldr	r3, .L3
  50 000c 1A6B     		ldr	r2, [r3, #48]
  51 000e 42F00402 		orr	r2, r2, #4
  52 0012 1A63     		str	r2, [r3, #48]
  53 0014 1A6B     		ldr	r2, [r3, #48]
  54 0016 02F00402 		and	r2, r2, #4
  55 001a 0092     		str	r2, [sp]
  56 001c 009A     		ldr	r2, [sp]
  57              	.LBE2:
  58              	.LBB3:
  69:Src/gpio.c    ****   __HAL_RCC_GPIOH_CLK_ENABLE();
  59              		.loc 1 69 0
  60 001e 0194     		str	r4, [sp, #4]
  61 0020 1A6B     		ldr	r2, [r3, #48]
  62 0022 42F08002 		orr	r2, r2, #128
  63 0026 1A63     		str	r2, [r3, #48]
  64 0028 1A6B     		ldr	r2, [r3, #48]
  65 002a 02F08002 		and	r2, r2, #128
  66 002e 0192     		str	r2, [sp, #4]
  67 0030 019A     		ldr	r2, [sp, #4]
  68              	.LBE3:
  69              	.LBB4:
  70:Src/gpio.c    ****   __HAL_RCC_GPIOA_CLK_ENABLE();
  70              		.loc 1 70 0
  71 0032 0294     		str	r4, [sp, #8]
  72 0034 1A6B     		ldr	r2, [r3, #48]
  73 0036 42F00102 		orr	r2, r2, #1
  74 003a 1A63     		str	r2, [r3, #48]
  75 003c 1A6B     		ldr	r2, [r3, #48]
  76 003e 02F00102 		and	r2, r2, #1
  77 0042 0292     		str	r2, [sp, #8]
  78 0044 029A     		ldr	r2, [sp, #8]
  79              	.LBE4:
  80              	.LBB5:
  71:Src/gpio.c    ****   __HAL_RCC_GPIOB_CLK_ENABLE();
  81              		.loc 1 71 0
  82 0046 0394     		str	r4, [sp, #12]
  83 0048 1A6B     		ldr	r2, [r3, #48]
  84 004a 42F00202 		orr	r2, r2, #2
  85 004e 1A63     		str	r2, [r3, #48]
  86 0050 1A6B     		ldr	r2, [r3, #48]
  87 0052 02F00202 		and	r2, r2, #2
  88 0056 0392     		str	r2, [sp, #12]
  89 0058 039A     		ldr	r2, [sp, #12]
  90              	.LBE5:
  91              	.LBB6:
  72:Src/gpio.c    ****   __HAL_RCC_GPIOD_CLK_ENABLE();
  92              		.loc 1 72 0
  93 005a 0494     		str	r4, [sp, #16]
  94 005c 1A6B     		ldr	r2, [r3, #48]
  95 005e 42F00802 		orr	r2, r2, #8
  96 0062 1A63     		str	r2, [r3, #48]
  97 0064 1B6B     		ldr	r3, [r3, #48]
  98 0066 03F00803 		and	r3, r3, #8
  99 006a 0493     		str	r3, [sp, #16]
 100 006c 049B     		ldr	r3, [sp, #16]
ARM GAS  /var/folders/68/n33lqcg953z5y1x0pvkj58xc0000gn/T//ccLCRjID.s 			page 4


 101              	.LBE6:
  73:Src/gpio.c    **** 
  74:Src/gpio.c    ****   /*Configure GPIO pins : PC13 PCPin */
  75:Src/gpio.c    ****   GPIO_InitStruct.Pin = GPIO_PIN_13|PI_INT_Pin;
 102              		.loc 1 75 0
 103 006e 42F20103 		movw	r3, #8193
 104 0072 0593     		str	r3, [sp, #20]
  76:Src/gpio.c    ****   GPIO_InitStruct.Mode = GPIO_MODE_IT_RISING;
 105              		.loc 1 76 0
 106 0074 394F     		ldr	r7, .L3+4
 107 0076 0697     		str	r7, [sp, #24]
  77:Src/gpio.c    ****   GPIO_InitStruct.Pull = GPIO_NOPULL;
 108              		.loc 1 77 0
 109 0078 0794     		str	r4, [sp, #28]
  78:Src/gpio.c    ****   HAL_GPIO_Init(GPIOC, &GPIO_InitStruct);
 110              		.loc 1 78 0
 111 007a DFF8F480 		ldr	r8, .L3+24
 112 007e 4046     		mov	r0, r8
 113 0080 05A9     		add	r1, sp, #20
 114 0082 FFF7FEFF 		bl	HAL_GPIO_Init
 115              	.LVL0:
  79:Src/gpio.c    **** 
  80:Src/gpio.c    ****   /*Configure GPIO pins : PC14 PC15 PC8 PC9 
  81:Src/gpio.c    ****                            PC10 PC11 PC12 */
  82:Src/gpio.c    ****   GPIO_InitStruct.Pin = GPIO_PIN_14|GPIO_PIN_15|GPIO_PIN_8|GPIO_PIN_9 
 116              		.loc 1 82 0
 117 0086 4FF45F43 		mov	r3, #57088
 118 008a 0593     		str	r3, [sp, #20]
  83:Src/gpio.c    ****                           |GPIO_PIN_10|GPIO_PIN_11|GPIO_PIN_12;
  84:Src/gpio.c    ****   GPIO_InitStruct.Mode = GPIO_MODE_ANALOG;
 119              		.loc 1 84 0
 120 008c 0325     		movs	r5, #3
 121 008e 0695     		str	r5, [sp, #24]
  85:Src/gpio.c    ****   GPIO_InitStruct.Pull = GPIO_NOPULL;
 122              		.loc 1 85 0
 123 0090 0794     		str	r4, [sp, #28]
  86:Src/gpio.c    ****   HAL_GPIO_Init(GPIOC, &GPIO_InitStruct);
 124              		.loc 1 86 0
 125 0092 4046     		mov	r0, r8
 126 0094 05A9     		add	r1, sp, #20
 127 0096 FFF7FEFF 		bl	HAL_GPIO_Init
 128              	.LVL1:
  87:Src/gpio.c    **** 
  88:Src/gpio.c    ****   /*Configure GPIO pins : PH0 PH1 */
  89:Src/gpio.c    ****   GPIO_InitStruct.Pin = GPIO_PIN_0|GPIO_PIN_1;
 129              		.loc 1 89 0
 130 009a 0595     		str	r5, [sp, #20]
  90:Src/gpio.c    ****   GPIO_InitStruct.Mode = GPIO_MODE_ANALOG;
 131              		.loc 1 90 0
 132 009c 0695     		str	r5, [sp, #24]
  91:Src/gpio.c    ****   GPIO_InitStruct.Pull = GPIO_NOPULL;
 133              		.loc 1 91 0
 134 009e 0794     		str	r4, [sp, #28]
  92:Src/gpio.c    ****   HAL_GPIO_Init(GPIOH, &GPIO_InitStruct);
 135              		.loc 1 92 0
 136 00a0 2F48     		ldr	r0, .L3+8
 137 00a2 05A9     		add	r1, sp, #20
ARM GAS  /var/folders/68/n33lqcg953z5y1x0pvkj58xc0000gn/T//ccLCRjID.s 			page 5


 138 00a4 FFF7FEFF 		bl	HAL_GPIO_Init
 139              	.LVL2:
  93:Src/gpio.c    **** 
  94:Src/gpio.c    ****   /*Configure GPIO pins : PCPin PCPin */
  95:Src/gpio.c    ****   GPIO_InitStruct.Pin = IR_INT_Pin|EDGE_RIGHT_Pin;
 140              		.loc 1 95 0
 141 00a8 0A23     		movs	r3, #10
 142 00aa 0593     		str	r3, [sp, #20]
  96:Src/gpio.c    ****   GPIO_InitStruct.Mode = GPIO_MODE_IT_RISING;
 143              		.loc 1 96 0
 144 00ac 0697     		str	r7, [sp, #24]
  97:Src/gpio.c    ****   GPIO_InitStruct.Pull = GPIO_PULLUP;
 145              		.loc 1 97 0
 146 00ae 0126     		movs	r6, #1
 147 00b0 0796     		str	r6, [sp, #28]
  98:Src/gpio.c    ****   HAL_GPIO_Init(GPIOC, &GPIO_InitStruct);
 148              		.loc 1 98 0
 149 00b2 4046     		mov	r0, r8
 150 00b4 05A9     		add	r1, sp, #20
 151 00b6 FFF7FEFF 		bl	HAL_GPIO_Init
 152              	.LVL3:
  99:Src/gpio.c    **** 
 100:Src/gpio.c    ****   /*Configure GPIO pins : PA3 PA12 PA13 PA14 
 101:Src/gpio.c    ****                            PA15 */
 102:Src/gpio.c    ****   GPIO_InitStruct.Pin = GPIO_PIN_3|GPIO_PIN_12|GPIO_PIN_13|GPIO_PIN_14 
 153              		.loc 1 102 0
 154 00ba 4FF20803 		movw	r3, #61448
 155 00be 0593     		str	r3, [sp, #20]
 103:Src/gpio.c    ****                           |GPIO_PIN_15;
 104:Src/gpio.c    ****   GPIO_InitStruct.Mode = GPIO_MODE_ANALOG;
 156              		.loc 1 104 0
 157 00c0 0695     		str	r5, [sp, #24]
 105:Src/gpio.c    ****   GPIO_InitStruct.Pull = GPIO_NOPULL;
 158              		.loc 1 105 0
 159 00c2 0794     		str	r4, [sp, #28]
 106:Src/gpio.c    ****   HAL_GPIO_Init(GPIOA, &GPIO_InitStruct);
 160              		.loc 1 106 0
 161 00c4 2748     		ldr	r0, .L3+12
 162 00c6 05A9     		add	r1, sp, #20
 163 00c8 FFF7FEFF 		bl	HAL_GPIO_Init
 164              	.LVL4:
 107:Src/gpio.c    **** 
 108:Src/gpio.c    ****   /*Configure GPIO pins : PB2 PB10 PB12 PB13 
 109:Src/gpio.c    ****                            PB3 PB4 PB5 */
 110:Src/gpio.c    ****   GPIO_InitStruct.Pin = GPIO_PIN_2|GPIO_PIN_10|GPIO_PIN_12|GPIO_PIN_13 
 165              		.loc 1 110 0
 166 00cc 43F23C43 		movw	r3, #13372
 167 00d0 0593     		str	r3, [sp, #20]
 111:Src/gpio.c    ****                           |GPIO_PIN_3|GPIO_PIN_4|GPIO_PIN_5;
 112:Src/gpio.c    ****   GPIO_InitStruct.Mode = GPIO_MODE_ANALOG;
 168              		.loc 1 112 0
 169 00d2 0695     		str	r5, [sp, #24]
 113:Src/gpio.c    ****   GPIO_InitStruct.Pull = GPIO_NOPULL;
 170              		.loc 1 113 0
 171 00d4 0794     		str	r4, [sp, #28]
 114:Src/gpio.c    ****   HAL_GPIO_Init(GPIOB, &GPIO_InitStruct);
 172              		.loc 1 114 0
ARM GAS  /var/folders/68/n33lqcg953z5y1x0pvkj58xc0000gn/T//ccLCRjID.s 			page 6


 173 00d6 244D     		ldr	r5, .L3+16
 174 00d8 2846     		mov	r0, r5
 175 00da 05A9     		add	r1, sp, #20
 176 00dc FFF7FEFF 		bl	HAL_GPIO_Init
 177              	.LVL5:
 115:Src/gpio.c    **** 
 116:Src/gpio.c    ****   /*Configure GPIO pins : PBPin PBPin */
 117:Src/gpio.c    ****   GPIO_InitStruct.Pin = TAPE_LEFT_Pin|TAPE_RIGHT_Pin;
 178              		.loc 1 117 0
 179 00e0 4FF44043 		mov	r3, #49152
 180 00e4 0593     		str	r3, [sp, #20]
 118:Src/gpio.c    ****   GPIO_InitStruct.Mode = GPIO_MODE_INPUT;
 181              		.loc 1 118 0
 182 00e6 0694     		str	r4, [sp, #24]
 119:Src/gpio.c    ****   GPIO_InitStruct.Pull = GPIO_PULLUP;
 183              		.loc 1 119 0
 184 00e8 0796     		str	r6, [sp, #28]
 120:Src/gpio.c    ****   HAL_GPIO_Init(GPIOB, &GPIO_InitStruct);
 185              		.loc 1 120 0
 186 00ea 2846     		mov	r0, r5
 187 00ec 05A9     		add	r1, sp, #20
 188 00ee FFF7FEFF 		bl	HAL_GPIO_Init
 189              	.LVL6:
 121:Src/gpio.c    **** 
 122:Src/gpio.c    ****   /*Configure GPIO pin : PtPin */
 123:Src/gpio.c    ****   GPIO_InitStruct.Pin = EDGE_LEFT_Pin;
 190              		.loc 1 123 0
 191 00f2 0423     		movs	r3, #4
 192 00f4 0593     		str	r3, [sp, #20]
 124:Src/gpio.c    ****   GPIO_InitStruct.Mode = GPIO_MODE_IT_RISING;
 193              		.loc 1 124 0
 194 00f6 0697     		str	r7, [sp, #24]
 125:Src/gpio.c    ****   GPIO_InitStruct.Pull = GPIO_PULLUP;
 195              		.loc 1 125 0
 196 00f8 0796     		str	r6, [sp, #28]
 126:Src/gpio.c    ****   HAL_GPIO_Init(EDGE_LEFT_GPIO_Port, &GPIO_InitStruct);
 197              		.loc 1 126 0
 198 00fa 1C48     		ldr	r0, .L3+20
 199 00fc 05A9     		add	r1, sp, #20
 200 00fe FFF7FEFF 		bl	HAL_GPIO_Init
 201              	.LVL7:
 127:Src/gpio.c    **** 
 128:Src/gpio.c    ****   /* EXTI interrupt init*/
 129:Src/gpio.c    ****   HAL_NVIC_SetPriority(EXTI0_IRQn, 0, 0);
 202              		.loc 1 129 0
 203 0102 0620     		movs	r0, #6
 204 0104 2146     		mov	r1, r4
 205 0106 2246     		mov	r2, r4
 206 0108 FFF7FEFF 		bl	HAL_NVIC_SetPriority
 207              	.LVL8:
 130:Src/gpio.c    ****   HAL_NVIC_EnableIRQ(EXTI0_IRQn);
 208              		.loc 1 130 0
 209 010c 0620     		movs	r0, #6
 210 010e FFF7FEFF 		bl	HAL_NVIC_EnableIRQ
 211              	.LVL9:
 131:Src/gpio.c    **** 
 132:Src/gpio.c    ****   HAL_NVIC_SetPriority(EXTI1_IRQn, 0, 0);
ARM GAS  /var/folders/68/n33lqcg953z5y1x0pvkj58xc0000gn/T//ccLCRjID.s 			page 7


 212              		.loc 1 132 0
 213 0112 0720     		movs	r0, #7
 214 0114 2146     		mov	r1, r4
 215 0116 2246     		mov	r2, r4
 216 0118 FFF7FEFF 		bl	HAL_NVIC_SetPriority
 217              	.LVL10:
 133:Src/gpio.c    ****   HAL_NVIC_EnableIRQ(EXTI1_IRQn);
 218              		.loc 1 133 0
 219 011c 0720     		movs	r0, #7
 220 011e FFF7FEFF 		bl	HAL_NVIC_EnableIRQ
 221              	.LVL11:
 134:Src/gpio.c    **** 
 135:Src/gpio.c    ****   HAL_NVIC_SetPriority(EXTI2_IRQn, 0, 0);
 222              		.loc 1 135 0
 223 0122 0820     		movs	r0, #8
 224 0124 2146     		mov	r1, r4
 225 0126 2246     		mov	r2, r4
 226 0128 FFF7FEFF 		bl	HAL_NVIC_SetPriority
 227              	.LVL12:
 136:Src/gpio.c    ****   HAL_NVIC_EnableIRQ(EXTI2_IRQn);
 228              		.loc 1 136 0
 229 012c 0820     		movs	r0, #8
 230 012e FFF7FEFF 		bl	HAL_NVIC_EnableIRQ
 231              	.LVL13:
 137:Src/gpio.c    **** 
 138:Src/gpio.c    ****   HAL_NVIC_SetPriority(EXTI3_IRQn, 0, 0);
 232              		.loc 1 138 0
 233 0132 0920     		movs	r0, #9
 234 0134 2146     		mov	r1, r4
 235 0136 2246     		mov	r2, r4
 236 0138 FFF7FEFF 		bl	HAL_NVIC_SetPriority
 237              	.LVL14:
 139:Src/gpio.c    ****   HAL_NVIC_EnableIRQ(EXTI3_IRQn);
 238              		.loc 1 139 0
 239 013c 0920     		movs	r0, #9
 240 013e FFF7FEFF 		bl	HAL_NVIC_EnableIRQ
 241              	.LVL15:
 140:Src/gpio.c    **** 
 141:Src/gpio.c    ****   HAL_NVIC_SetPriority(EXTI15_10_IRQn, 0, 0);
 242              		.loc 1 141 0
 243 0142 2820     		movs	r0, #40
 244 0144 2146     		mov	r1, r4
 245 0146 2246     		mov	r2, r4
 246 0148 FFF7FEFF 		bl	HAL_NVIC_SetPriority
 247              	.LVL16:
 142:Src/gpio.c    ****   HAL_NVIC_EnableIRQ(EXTI15_10_IRQn);
 248              		.loc 1 142 0
 249 014c 2820     		movs	r0, #40
 250 014e FFF7FEFF 		bl	HAL_NVIC_EnableIRQ
 251              	.LVL17:
 143:Src/gpio.c    **** 
 144:Src/gpio.c    **** }
 252              		.loc 1 144 0
 253 0152 0AB0     		add	sp, sp, #40
 254              	.LCFI2:
 255              		.cfi_def_cfa_offset 24
 256              		@ sp needed
ARM GAS  /var/folders/68/n33lqcg953z5y1x0pvkj58xc0000gn/T//ccLCRjID.s 			page 8


 257 0154 BDE8F081 		pop	{r4, r5, r6, r7, r8, pc}
 258              	.L4:
 259              		.align	2
 260              	.L3:
 261 0158 00380240 		.word	1073887232
 262 015c 00001110 		.word	269549568
 263 0160 001C0240 		.word	1073880064
 264 0164 00000240 		.word	1073872896
 265 0168 00040240 		.word	1073873920
 266 016c 000C0240 		.word	1073875968
 267 0170 00080240 		.word	1073874944
 268              		.cfi_endproc
 269              	.LFE123:
 271              		.text
 272              	.Letext0:
 273              		.file 2 "Drivers/CMSIS/Device/ST/STM32F4xx/Include/stm32f401xe.h"
 274              		.file 3 "/usr/local/Cellar/arm-none-eabi-gcc/20150921/arm-none-eabi/include/machine/_default_types
 275              		.file 4 "/usr/local/Cellar/arm-none-eabi-gcc/20150921/arm-none-eabi/include/sys/_stdint.h"
 276              		.file 5 "Drivers/STM32F4xx_HAL_Driver/Inc/stm32f4xx_hal_gpio.h"
 277              		.file 6 "Drivers/STM32F4xx_HAL_Driver/Inc/stm32f4xx_hal_cortex.h"
 278              		.file 7 "Drivers/CMSIS/Include/core_cm4.h"
ARM GAS  /var/folders/68/n33lqcg953z5y1x0pvkj58xc0000gn/T//ccLCRjID.s 			page 9

