ARM GAS  /var/folders/68/n33lqcg953z5y1x0pvkj58xc0000gn/T//ccJ92pm7.s 			page 1


   1              		.syntax unified
   2              		.cpu cortex-m4
   3              		.eabi_attribute 27, 1
   4              		.eabi_attribute 28, 1
   5              		.fpu fpv4-sp-d16
   6              		.eabi_attribute 20, 1
   7              		.eabi_attribute 21, 1
   8              		.eabi_attribute 23, 3
   9              		.eabi_attribute 24, 1
  10              		.eabi_attribute 25, 1
  11              		.eabi_attribute 26, 1
  12              		.eabi_attribute 30, 1
  13              		.eabi_attribute 34, 1
  14              		.eabi_attribute 18, 4
  15              		.thumb
  16              		.file	"gpio.c"
  17              		.text
  18              	.Ltext0:
  19              		.cfi_sections	.debug_frame
  20              		.section	.text.MX_GPIO_Init,"ax",%progbits
  21              		.align	2
  22              		.global	MX_GPIO_Init
  23              		.thumb
  24              		.thumb_func
  26              	MX_GPIO_Init:
  27              	.LFB123:
  28              		.file 1 "Src/gpio.c"
   1:Src/gpio.c    **** /**
   2:Src/gpio.c    ****   ******************************************************************************
   3:Src/gpio.c    ****   * File Name          : gpio.c
   4:Src/gpio.c    ****   * Description        : This file provides code for the configuration
   5:Src/gpio.c    ****   *                      of all used GPIO pins.
   6:Src/gpio.c    ****   ******************************************************************************
   7:Src/gpio.c    ****   ** This notice applies to any and all portions of this file
   8:Src/gpio.c    ****   * that are not between comment pairs USER CODE BEGIN and
   9:Src/gpio.c    ****   * USER CODE END. Other portions of this file, whether 
  10:Src/gpio.c    ****   * inserted by the user or by software development tools
  11:Src/gpio.c    ****   * are owned by their respective copyright owners.
  12:Src/gpio.c    ****   *
  13:Src/gpio.c    ****   * COPYRIGHT(c) 2018 STMicroelectronics
  14:Src/gpio.c    ****   *
  15:Src/gpio.c    ****   * Redistribution and use in source and binary forms, with or without modification,
  16:Src/gpio.c    ****   * are permitted provided that the following conditions are met:
  17:Src/gpio.c    ****   *   1. Redistributions of source code must retain the above copyright notice,
  18:Src/gpio.c    ****   *      this list of conditions and the following disclaimer.
  19:Src/gpio.c    ****   *   2. Redistributions in binary form must reproduce the above copyright notice,
  20:Src/gpio.c    ****   *      this list of conditions and the following disclaimer in the documentation
  21:Src/gpio.c    ****   *      and/or other materials provided with the distribution.
  22:Src/gpio.c    ****   *   3. Neither the name of STMicroelectronics nor the names of its contributors
  23:Src/gpio.c    ****   *      may be used to endorse or promote products derived from this software
  24:Src/gpio.c    ****   *      without specific prior written permission.
  25:Src/gpio.c    ****   *
  26:Src/gpio.c    ****   * THIS SOFTWARE IS PROVIDED BY THE COPYRIGHT HOLDERS AND CONTRIBUTORS "AS IS"
  27:Src/gpio.c    ****   * AND ANY EXPRESS OR IMPLIED WARRANTIES, INCLUDING, BUT NOT LIMITED TO, THE
  28:Src/gpio.c    ****   * IMPLIED WARRANTIES OF MERCHANTABILITY AND FITNESS FOR A PARTICULAR PURPOSE ARE
  29:Src/gpio.c    ****   * DISCLAIMED. IN NO EVENT SHALL THE COPYRIGHT HOLDER OR CONTRIBUTORS BE LIABLE
  30:Src/gpio.c    ****   * FOR ANY DIRECT, INDIRECT, INCIDENTAL, SPECIAL, EXEMPLARY, OR CONSEQUENTIAL
ARM GAS  /var/folders/68/n33lqcg953z5y1x0pvkj58xc0000gn/T//ccJ92pm7.s 			page 2


  31:Src/gpio.c    ****   * DAMAGES (INCLUDING, BUT NOT LIMITED TO, PROCUREMENT OF SUBSTITUTE GOODS OR
  32:Src/gpio.c    ****   * SERVICES; LOSS OF USE, DATA, OR PROFITS; OR BUSINESS INTERRUPTION) HOWEVER
  33:Src/gpio.c    ****   * CAUSED AND ON ANY THEORY OF LIABILITY, WHETHER IN CONTRACT, STRICT LIABILITY,
  34:Src/gpio.c    ****   * OR TORT (INCLUDING NEGLIGENCE OR OTHERWISE) ARISING IN ANY WAY OUT OF THE USE
  35:Src/gpio.c    ****   * OF THIS SOFTWARE, EVEN IF ADVISED OF THE POSSIBILITY OF SUCH DAMAGE.
  36:Src/gpio.c    ****   *
  37:Src/gpio.c    ****   ******************************************************************************
  38:Src/gpio.c    ****   */
  39:Src/gpio.c    **** 
  40:Src/gpio.c    **** /* Includes ------------------------------------------------------------------*/
  41:Src/gpio.c    **** #include "gpio.h"
  42:Src/gpio.c    **** /* USER CODE BEGIN 0 */
  43:Src/gpio.c    **** 
  44:Src/gpio.c    **** /* USER CODE END 0 */
  45:Src/gpio.c    **** 
  46:Src/gpio.c    **** /*----------------------------------------------------------------------------*/
  47:Src/gpio.c    **** /* Configure GPIO                                                             */
  48:Src/gpio.c    **** /*----------------------------------------------------------------------------*/
  49:Src/gpio.c    **** /* USER CODE BEGIN 1 */
  50:Src/gpio.c    **** 
  51:Src/gpio.c    **** /* USER CODE END 1 */
  52:Src/gpio.c    **** 
  53:Src/gpio.c    **** /** Configure pins as 
  54:Src/gpio.c    ****         * Analog 
  55:Src/gpio.c    ****         * Input 
  56:Src/gpio.c    ****         * Output
  57:Src/gpio.c    ****         * EVENT_OUT
  58:Src/gpio.c    ****         * EXTI
  59:Src/gpio.c    ****         * Free pins are configured automatically as Analog (this feature is enabled through 
  60:Src/gpio.c    ****         * the Code Generation settings)
  61:Src/gpio.c    **** */
  62:Src/gpio.c    **** void MX_GPIO_Init(void)
  63:Src/gpio.c    **** {
  29              		.loc 1 63 0
  30              		.cfi_startproc
  31              		@ args = 0, pretend = 0, frame = 40
  32              		@ frame_needed = 0, uses_anonymous_args = 0
  33 0000 2DE9F041 		push	{r4, r5, r6, r7, r8, lr}
  34              	.LCFI0:
  35              		.cfi_def_cfa_offset 24
  36              		.cfi_offset 4, -24
  37              		.cfi_offset 5, -20
  38              		.cfi_offset 6, -16
  39              		.cfi_offset 7, -12
  40              		.cfi_offset 8, -8
  41              		.cfi_offset 14, -4
  42 0004 8AB0     		sub	sp, sp, #40
  43              	.LCFI1:
  44              		.cfi_def_cfa_offset 64
  45              	.LBB2:
  64:Src/gpio.c    **** 
  65:Src/gpio.c    ****   GPIO_InitTypeDef GPIO_InitStruct;
  66:Src/gpio.c    **** 
  67:Src/gpio.c    ****   /* GPIO Ports Clock Enable */
  68:Src/gpio.c    ****   __HAL_RCC_GPIOC_CLK_ENABLE();
  46              		.loc 1 68 0
  47 0006 0024     		movs	r4, #0
ARM GAS  /var/folders/68/n33lqcg953z5y1x0pvkj58xc0000gn/T//ccJ92pm7.s 			page 3


  48 0008 0094     		str	r4, [sp]
  49 000a 434B     		ldr	r3, .L3
  50 000c 1A6B     		ldr	r2, [r3, #48]
  51 000e 42F00402 		orr	r2, r2, #4
  52 0012 1A63     		str	r2, [r3, #48]
  53 0014 1A6B     		ldr	r2, [r3, #48]
  54 0016 02F00402 		and	r2, r2, #4
  55 001a 0092     		str	r2, [sp]
  56 001c 009A     		ldr	r2, [sp]
  57              	.LBE2:
  58              	.LBB3:
  69:Src/gpio.c    ****   __HAL_RCC_GPIOH_CLK_ENABLE();
  59              		.loc 1 69 0
  60 001e 0194     		str	r4, [sp, #4]
  61 0020 1A6B     		ldr	r2, [r3, #48]
  62 0022 42F08002 		orr	r2, r2, #128
  63 0026 1A63     		str	r2, [r3, #48]
  64 0028 1A6B     		ldr	r2, [r3, #48]
  65 002a 02F08002 		and	r2, r2, #128
  66 002e 0192     		str	r2, [sp, #4]
  67 0030 019A     		ldr	r2, [sp, #4]
  68              	.LBE3:
  69              	.LBB4:
  70:Src/gpio.c    ****   __HAL_RCC_GPIOA_CLK_ENABLE();
  70              		.loc 1 70 0
  71 0032 0294     		str	r4, [sp, #8]
  72 0034 1A6B     		ldr	r2, [r3, #48]
  73 0036 42F00102 		orr	r2, r2, #1
  74 003a 1A63     		str	r2, [r3, #48]
  75 003c 1A6B     		ldr	r2, [r3, #48]
  76 003e 02F00102 		and	r2, r2, #1
  77 0042 0292     		str	r2, [sp, #8]
  78 0044 029A     		ldr	r2, [sp, #8]
  79              	.LBE4:
  80              	.LBB5:
  71:Src/gpio.c    ****   __HAL_RCC_GPIOB_CLK_ENABLE();
  81              		.loc 1 71 0
  82 0046 0394     		str	r4, [sp, #12]
  83 0048 1A6B     		ldr	r2, [r3, #48]
  84 004a 42F00202 		orr	r2, r2, #2
  85 004e 1A63     		str	r2, [r3, #48]
  86 0050 1A6B     		ldr	r2, [r3, #48]
  87 0052 02F00202 		and	r2, r2, #2
  88 0056 0392     		str	r2, [sp, #12]
  89 0058 039A     		ldr	r2, [sp, #12]
  90              	.LBE5:
  91              	.LBB6:
  72:Src/gpio.c    ****   __HAL_RCC_GPIOD_CLK_ENABLE();
  92              		.loc 1 72 0
  93 005a 0494     		str	r4, [sp, #16]
  94 005c 1A6B     		ldr	r2, [r3, #48]
  95 005e 42F00802 		orr	r2, r2, #8
  96 0062 1A63     		str	r2, [r3, #48]
  97 0064 1B6B     		ldr	r3, [r3, #48]
  98 0066 03F00803 		and	r3, r3, #8
  99 006a 0493     		str	r3, [sp, #16]
 100 006c 049B     		ldr	r3, [sp, #16]
ARM GAS  /var/folders/68/n33lqcg953z5y1x0pvkj58xc0000gn/T//ccJ92pm7.s 			page 4


 101              	.LBE6:
  73:Src/gpio.c    **** 
  74:Src/gpio.c    ****   /*Configure GPIO pins : PC13 PC14 PC15 PC4 
  75:Src/gpio.c    ****                            PC5 PC8 PC9 PC10 
  76:Src/gpio.c    ****                            PC11 PC12 */
  77:Src/gpio.c    ****   GPIO_InitStruct.Pin = GPIO_PIN_13|GPIO_PIN_14|GPIO_PIN_15|GPIO_PIN_4 
 102              		.loc 1 77 0
 103 006e 4FF63073 		movw	r3, #65328
 104 0072 0593     		str	r3, [sp, #20]
  78:Src/gpio.c    ****                           |GPIO_PIN_5|GPIO_PIN_8|GPIO_PIN_9|GPIO_PIN_10 
  79:Src/gpio.c    ****                           |GPIO_PIN_11|GPIO_PIN_12;
  80:Src/gpio.c    ****   GPIO_InitStruct.Mode = GPIO_MODE_ANALOG;
 105              		.loc 1 80 0
 106 0074 0325     		movs	r5, #3
 107 0076 0695     		str	r5, [sp, #24]
  81:Src/gpio.c    ****   GPIO_InitStruct.Pull = GPIO_NOPULL;
 108              		.loc 1 81 0
 109 0078 0794     		str	r4, [sp, #28]
  82:Src/gpio.c    ****   HAL_GPIO_Init(GPIOC, &GPIO_InitStruct);
 110              		.loc 1 82 0
 111 007a 284E     		ldr	r6, .L3+4
 112 007c 3046     		mov	r0, r6
 113 007e 05A9     		add	r1, sp, #20
 114 0080 FFF7FEFF 		bl	HAL_GPIO_Init
 115              	.LVL0:
  83:Src/gpio.c    **** 
  84:Src/gpio.c    ****   /*Configure GPIO pins : PH0 PH1 */
  85:Src/gpio.c    ****   GPIO_InitStruct.Pin = GPIO_PIN_0|GPIO_PIN_1;
 116              		.loc 1 85 0
 117 0084 0595     		str	r5, [sp, #20]
  86:Src/gpio.c    ****   GPIO_InitStruct.Mode = GPIO_MODE_ANALOG;
 118              		.loc 1 86 0
 119 0086 0695     		str	r5, [sp, #24]
  87:Src/gpio.c    ****   GPIO_InitStruct.Pull = GPIO_NOPULL;
 120              		.loc 1 87 0
 121 0088 0794     		str	r4, [sp, #28]
  88:Src/gpio.c    ****   HAL_GPIO_Init(GPIOH, &GPIO_InitStruct);
 122              		.loc 1 88 0
 123 008a 2548     		ldr	r0, .L3+8
 124 008c 05A9     		add	r1, sp, #20
 125 008e FFF7FEFF 		bl	HAL_GPIO_Init
 126              	.LVL1:
  89:Src/gpio.c    **** 
  90:Src/gpio.c    ****   /*Configure GPIO pins : PC0 PC1 */
  91:Src/gpio.c    ****   GPIO_InitStruct.Pin = GPIO_PIN_0|GPIO_PIN_1;
 127              		.loc 1 91 0
 128 0092 0595     		str	r5, [sp, #20]
  92:Src/gpio.c    ****   GPIO_InitStruct.Mode = GPIO_MODE_INPUT;
 129              		.loc 1 92 0
 130 0094 0694     		str	r4, [sp, #24]
  93:Src/gpio.c    ****   GPIO_InitStruct.Pull = GPIO_NOPULL;
 131              		.loc 1 93 0
 132 0096 0794     		str	r4, [sp, #28]
  94:Src/gpio.c    ****   HAL_GPIO_Init(GPIOC, &GPIO_InitStruct);
 133              		.loc 1 94 0
 134 0098 3046     		mov	r0, r6
 135 009a 05A9     		add	r1, sp, #20
ARM GAS  /var/folders/68/n33lqcg953z5y1x0pvkj58xc0000gn/T//ccJ92pm7.s 			page 5


 136 009c FFF7FEFF 		bl	HAL_GPIO_Init
 137              	.LVL2:
  95:Src/gpio.c    **** 
  96:Src/gpio.c    ****   /*Configure GPIO pins : PC2 PC3 */
  97:Src/gpio.c    ****   GPIO_InitStruct.Pin = GPIO_PIN_2|GPIO_PIN_3;
 138              		.loc 1 97 0
 139 00a0 0C23     		movs	r3, #12
 140 00a2 0593     		str	r3, [sp, #20]
  98:Src/gpio.c    ****   GPIO_InitStruct.Mode = GPIO_MODE_IT_RISING;
 141              		.loc 1 98 0
 142 00a4 1F4F     		ldr	r7, .L3+12
 143 00a6 0697     		str	r7, [sp, #24]
  99:Src/gpio.c    ****   GPIO_InitStruct.Pull = GPIO_NOPULL;
 144              		.loc 1 99 0
 145 00a8 0794     		str	r4, [sp, #28]
 100:Src/gpio.c    ****   HAL_GPIO_Init(GPIOC, &GPIO_InitStruct);
 146              		.loc 1 100 0
 147 00aa 3046     		mov	r0, r6
 148 00ac 05A9     		add	r1, sp, #20
 149 00ae FFF7FEFF 		bl	HAL_GPIO_Init
 150              	.LVL3:
 101:Src/gpio.c    **** 
 102:Src/gpio.c    ****   /*Configure GPIO pins : PA5 PA6 PA12 PA13 
 103:Src/gpio.c    ****                            PA14 */
 104:Src/gpio.c    ****   GPIO_InitStruct.Pin = GPIO_PIN_5|GPIO_PIN_6|GPIO_PIN_12|GPIO_PIN_13 
 151              		.loc 1 104 0
 152 00b2 47F26003 		movw	r3, #28768
 153 00b6 0593     		str	r3, [sp, #20]
 105:Src/gpio.c    ****                           |GPIO_PIN_14;
 106:Src/gpio.c    ****   GPIO_InitStruct.Mode = GPIO_MODE_ANALOG;
 154              		.loc 1 106 0
 155 00b8 0695     		str	r5, [sp, #24]
 107:Src/gpio.c    ****   GPIO_InitStruct.Pull = GPIO_NOPULL;
 156              		.loc 1 107 0
 157 00ba 0794     		str	r4, [sp, #28]
 108:Src/gpio.c    ****   HAL_GPIO_Init(GPIOA, &GPIO_InitStruct);
 158              		.loc 1 108 0
 159 00bc A6F50066 		sub	r6, r6, #2048
 160 00c0 3046     		mov	r0, r6
 161 00c2 05A9     		add	r1, sp, #20
 162 00c4 FFF7FEFF 		bl	HAL_GPIO_Init
 163              	.LVL4:
 109:Src/gpio.c    **** 
 110:Src/gpio.c    ****   /*Configure GPIO pins : PB1 PB2 PB10 PB12 
 111:Src/gpio.c    ****                            PB13 PB3 PB5 PB8 
 112:Src/gpio.c    ****                            PB9 */
 113:Src/gpio.c    ****   GPIO_InitStruct.Pin = GPIO_PIN_1|GPIO_PIN_2|GPIO_PIN_10|GPIO_PIN_12 
 164              		.loc 1 113 0
 165 00c8 43F22E73 		movw	r3, #14126
 166 00cc 0593     		str	r3, [sp, #20]
 114:Src/gpio.c    ****                           |GPIO_PIN_13|GPIO_PIN_3|GPIO_PIN_5|GPIO_PIN_8 
 115:Src/gpio.c    ****                           |GPIO_PIN_9;
 116:Src/gpio.c    ****   GPIO_InitStruct.Mode = GPIO_MODE_ANALOG;
 167              		.loc 1 116 0
 168 00ce 0695     		str	r5, [sp, #24]
 117:Src/gpio.c    ****   GPIO_InitStruct.Pull = GPIO_NOPULL;
 169              		.loc 1 117 0
ARM GAS  /var/folders/68/n33lqcg953z5y1x0pvkj58xc0000gn/T//ccJ92pm7.s 			page 6


 170 00d0 0794     		str	r4, [sp, #28]
 118:Src/gpio.c    ****   HAL_GPIO_Init(GPIOB, &GPIO_InitStruct);
 171              		.loc 1 118 0
 172 00d2 DFF85880 		ldr	r8, .L3+20
 173 00d6 4046     		mov	r0, r8
 174 00d8 05A9     		add	r1, sp, #20
 175 00da FFF7FEFF 		bl	HAL_GPIO_Init
 176              	.LVL5:
 119:Src/gpio.c    **** 
 120:Src/gpio.c    ****   /*Configure GPIO pins : PB14 PB15 */
 121:Src/gpio.c    ****   GPIO_InitStruct.Pin = GPIO_PIN_14|GPIO_PIN_15;
 177              		.loc 1 121 0
 178 00de 4FF44043 		mov	r3, #49152
 179 00e2 0593     		str	r3, [sp, #20]
 122:Src/gpio.c    ****   GPIO_InitStruct.Mode = GPIO_MODE_INPUT;
 180              		.loc 1 122 0
 181 00e4 0694     		str	r4, [sp, #24]
 123:Src/gpio.c    ****   GPIO_InitStruct.Pull = GPIO_NOPULL;
 182              		.loc 1 123 0
 183 00e6 0794     		str	r4, [sp, #28]
 124:Src/gpio.c    ****   HAL_GPIO_Init(GPIOB, &GPIO_InitStruct);
 184              		.loc 1 124 0
 185 00e8 4046     		mov	r0, r8
 186 00ea 05A9     		add	r1, sp, #20
 187 00ec FFF7FEFF 		bl	HAL_GPIO_Init
 188              	.LVL6:
 125:Src/gpio.c    **** 
 126:Src/gpio.c    ****   /*Configure GPIO pin : PA15 */
 127:Src/gpio.c    ****   GPIO_InitStruct.Pin = GPIO_PIN_15;
 189              		.loc 1 127 0
 190 00f0 4FF40043 		mov	r3, #32768
 191 00f4 0593     		str	r3, [sp, #20]
 128:Src/gpio.c    ****   GPIO_InitStruct.Mode = GPIO_MODE_IT_RISING;
 192              		.loc 1 128 0
 193 00f6 0697     		str	r7, [sp, #24]
 129:Src/gpio.c    ****   GPIO_InitStruct.Pull = GPIO_NOPULL;
 194              		.loc 1 129 0
 195 00f8 0794     		str	r4, [sp, #28]
 130:Src/gpio.c    ****   HAL_GPIO_Init(GPIOA, &GPIO_InitStruct);
 196              		.loc 1 130 0
 197 00fa 3046     		mov	r0, r6
 198 00fc 05A9     		add	r1, sp, #20
 199 00fe FFF7FEFF 		bl	HAL_GPIO_Init
 200              	.LVL7:
 131:Src/gpio.c    **** 
 132:Src/gpio.c    ****   /*Configure GPIO pin : PD2 */
 133:Src/gpio.c    ****   GPIO_InitStruct.Pin = GPIO_PIN_2;
 201              		.loc 1 133 0
 202 0102 0423     		movs	r3, #4
 203 0104 0593     		str	r3, [sp, #20]
 134:Src/gpio.c    ****   GPIO_InitStruct.Mode = GPIO_MODE_ANALOG;
 204              		.loc 1 134 0
 205 0106 0695     		str	r5, [sp, #24]
 135:Src/gpio.c    ****   GPIO_InitStruct.Pull = GPIO_NOPULL;
 206              		.loc 1 135 0
 207 0108 0794     		str	r4, [sp, #28]
 136:Src/gpio.c    ****   HAL_GPIO_Init(GPIOD, &GPIO_InitStruct);
ARM GAS  /var/folders/68/n33lqcg953z5y1x0pvkj58xc0000gn/T//ccJ92pm7.s 			page 7


 208              		.loc 1 136 0
 209 010a 0748     		ldr	r0, .L3+16
 210 010c 05A9     		add	r1, sp, #20
 211 010e FFF7FEFF 		bl	HAL_GPIO_Init
 212              	.LVL8:
 137:Src/gpio.c    **** 
 138:Src/gpio.c    **** }
 213              		.loc 1 138 0
 214 0112 0AB0     		add	sp, sp, #40
 215              	.LCFI2:
 216              		.cfi_def_cfa_offset 24
 217              		@ sp needed
 218 0114 BDE8F081 		pop	{r4, r5, r6, r7, r8, pc}
 219              	.L4:
 220              		.align	2
 221              	.L3:
 222 0118 00380240 		.word	1073887232
 223 011c 00080240 		.word	1073874944
 224 0120 001C0240 		.word	1073880064
 225 0124 00001110 		.word	269549568
 226 0128 000C0240 		.word	1073875968
 227 012c 00040240 		.word	1073873920
 228              		.cfi_endproc
 229              	.LFE123:
 231              		.text
 232              	.Letext0:
 233              		.file 2 "/usr/local/Cellar/arm-none-eabi-gcc/20150921/arm-none-eabi/include/machine/_default_types
 234              		.file 3 "/usr/local/Cellar/arm-none-eabi-gcc/20150921/arm-none-eabi/include/sys/_stdint.h"
 235              		.file 4 "Drivers/CMSIS/Device/ST/STM32F4xx/Include/stm32f401xe.h"
 236              		.file 5 "Drivers/STM32F4xx_HAL_Driver/Inc/stm32f4xx_hal_gpio.h"
 237              		.file 6 "Drivers/CMSIS/Include/core_cm4.h"
ARM GAS  /var/folders/68/n33lqcg953z5y1x0pvkj58xc0000gn/T//ccJ92pm7.s 			page 8

