ARM GAS  /var/folders/68/n33lqcg953z5y1x0pvkj58xc0000gn/T//ccukmGpE.s 			page 1


   1              		.syntax unified
   2              		.cpu cortex-m4
   3              		.eabi_attribute 27, 1
   4              		.eabi_attribute 28, 1
   5              		.fpu fpv4-sp-d16
   6              		.eabi_attribute 20, 1
   7              		.eabi_attribute 21, 1
   8              		.eabi_attribute 23, 3
   9              		.eabi_attribute 24, 1
  10              		.eabi_attribute 25, 1
  11              		.eabi_attribute 26, 1
  12              		.eabi_attribute 30, 1
  13              		.eabi_attribute 34, 1
  14              		.eabi_attribute 18, 4
  15              		.thumb
  16              		.file	"main.c"
  17              		.text
  18              	.Ltext0:
  19              		.cfi_sections	.debug_frame
  20              		.section	.text.HAL_ADC_ConvCpltCallback,"ax",%progbits
  21              		.align	2
  22              		.global	HAL_ADC_ConvCpltCallback
  23              		.thumb
  24              		.thumb_func
  26              	HAL_ADC_ConvCpltCallback:
  27              	.LFB123:
  28              		.file 1 "Src/main.c"
   1:Src/main.c    **** 
   2:Src/main.c    **** /**
   3:Src/main.c    ****   ******************************************************************************
   4:Src/main.c    ****   * @file           : main.c
   5:Src/main.c    ****   * @brief          : Main program body
   6:Src/main.c    ****   ******************************************************************************
   7:Src/main.c    ****   ** This notice applies to any and all portions of this file
   8:Src/main.c    ****   * that are not between comment pairs USER CODE BEGIN and
   9:Src/main.c    ****   * USER CODE END. Other portions of this file, whether 
  10:Src/main.c    ****   * inserted by the user or by software development tools
  11:Src/main.c    ****   * are owned by their respective copyright owners.
  12:Src/main.c    ****   *
  13:Src/main.c    ****   * COPYRIGHT(c) 2018 STMicroelectronics
  14:Src/main.c    ****   *
  15:Src/main.c    ****   * Redistribution and use in source and binary forms, with or without modification,
  16:Src/main.c    ****   * are permitted provided that the following conditions are met:
  17:Src/main.c    ****   *   1. Redistributions of source code must retain the above copyright notice,
  18:Src/main.c    ****   *      this list of conditions and the following disclaimer.
  19:Src/main.c    ****   *   2. Redistributions in binary form must reproduce the above copyright notice,
  20:Src/main.c    ****   *      this list of conditions and the following disclaimer in the documentation
  21:Src/main.c    ****   *      and/or other materials provided with the distribution.
  22:Src/main.c    ****   *   3. Neither the name of STMicroelectronics nor the names of its contributors
  23:Src/main.c    ****   *      may be used to endorse or promote products derived from this software
  24:Src/main.c    ****   *      without specific prior written permission.
  25:Src/main.c    ****   *
  26:Src/main.c    ****   * THIS SOFTWARE IS PROVIDED BY THE COPYRIGHT HOLDERS AND CONTRIBUTORS "AS IS"
  27:Src/main.c    ****   * AND ANY EXPRESS OR IMPLIED WARRANTIES, INCLUDING, BUT NOT LIMITED TO, THE
  28:Src/main.c    ****   * IMPLIED WARRANTIES OF MERCHANTABILITY AND FITNESS FOR A PARTICULAR PURPOSE ARE
  29:Src/main.c    ****   * DISCLAIMED. IN NO EVENT SHALL THE COPYRIGHT HOLDER OR CONTRIBUTORS BE LIABLE
  30:Src/main.c    ****   * FOR ANY DIRECT, INDIRECT, INCIDENTAL, SPECIAL, EXEMPLARY, OR CONSEQUENTIAL
ARM GAS  /var/folders/68/n33lqcg953z5y1x0pvkj58xc0000gn/T//ccukmGpE.s 			page 2


  31:Src/main.c    ****   * DAMAGES (INCLUDING, BUT NOT LIMITED TO, PROCUREMENT OF SUBSTITUTE GOODS OR
  32:Src/main.c    ****   * SERVICES; LOSS OF USE, DATA, OR PROFITS; OR BUSINESS INTERRUPTION) HOWEVER
  33:Src/main.c    ****   * CAUSED AND ON ANY THEORY OF LIABILITY, WHETHER IN CONTRACT, STRICT LIABILITY,
  34:Src/main.c    ****   * OR TORT (INCLUDING NEGLIGENCE OR OTHERWISE) ARISING IN ANY WAY OUT OF THE USE
  35:Src/main.c    ****   * OF THIS SOFTWARE, EVEN IF ADVISED OF THE POSSIBILITY OF SUCH DAMAGE.
  36:Src/main.c    ****   *
  37:Src/main.c    ****   ******************************************************************************
  38:Src/main.c    ****   */
  39:Src/main.c    **** /* Includes ------------------------------------------------------------------*/
  40:Src/main.c    **** #include "main.h"
  41:Src/main.c    **** #include "stm32f4xx_hal.h"
  42:Src/main.c    **** #include "adc.h"
  43:Src/main.c    **** #include "dma.h"
  44:Src/main.c    **** #include "i2c.h"
  45:Src/main.c    **** #include "tim.h"
  46:Src/main.c    **** #include "usart.h"
  47:Src/main.c    **** #include "gpio.h"
  48:Src/main.c    **** 
  49:Src/main.c    **** /* USER CODE BEGIN Includes */
  50:Src/main.c    **** #include "fonts.h"
  51:Src/main.c    **** #include "ssd1306.h"
  52:Src/main.c    **** #include "pid.h"
  53:Src/main.c    **** #include "filter.h"
  54:Src/main.c    **** #include "encoder.h"
  55:Src/main.c    **** #include "extern_vars.h"
  56:Src/main.c    **** #include <String.h>
  57:Src/main.c    **** 
  58:Src/main.c    **** /* USER CODE END Includes */
  59:Src/main.c    **** 
  60:Src/main.c    **** /* Private variables ---------------------------------------------------------*/
  61:Src/main.c    **** 
  62:Src/main.c    **** /* USER CODE BEGIN PV */
  63:Src/main.c    **** /* Private variables ---------------------------------------------------------*/
  64:Src/main.c    **** uint16_t LEFT_SPEED;
  65:Src/main.c    **** uint16_t RIGHT_SPEED;
  66:Src/main.c    **** uint32_t adc_buffer[3072];
  67:Src/main.c    **** uint32_t read_value[3072];
  68:Src/main.c    **** 
  69:Src/main.c    **** /* USER CODE END PV */
  70:Src/main.c    **** 
  71:Src/main.c    **** /* Private function prototypes -----------------------------------------------*/
  72:Src/main.c    **** void SystemClock_Config(void);
  73:Src/main.c    **** 
  74:Src/main.c    **** /* USER CODE BEGIN PFP */
  75:Src/main.c    **** /* Private function prototypes -----------------------------------------------*/
  76:Src/main.c    **** void print(char msg[], int row);
  77:Src/main.c    **** void do_pid(PID_t *pid_struct);
  78:Src/main.c    **** PID_t menu();
  79:Src/main.c    **** void frequency_comparison(uint16_t freq1, uint16_t freq2, uint16_t GPIO_Pin);
  80:Src/main.c    **** 
  81:Src/main.c    **** /* USER CODE END PFP */
  82:Src/main.c    **** 
  83:Src/main.c    **** /* USER CODE BEGIN 0 */
  84:Src/main.c    **** void HAL_ADC_ConvCpltCallback(ADC_HandleTypeDef *hadc)
  85:Src/main.c    **** {
  29              		.loc 1 85 0
  30              		.cfi_startproc
ARM GAS  /var/folders/68/n33lqcg953z5y1x0pvkj58xc0000gn/T//ccukmGpE.s 			page 3


  31              		@ args = 0, pretend = 0, frame = 0
  32              		@ frame_needed = 0, uses_anonymous_args = 0
  33              	.LVL0:
  34 0000 08B5     		push	{r3, lr}
  35              	.LCFI0:
  36              		.cfi_def_cfa_offset 8
  37              		.cfi_offset 3, -8
  38              		.cfi_offset 14, -4
  86:Src/main.c    ****     memcpy(read_value, adc_buffer, sizeof(adc_buffer));
  39              		.loc 1 86 0
  40 0002 0348     		ldr	r0, .L3
  41              	.LVL1:
  42 0004 0349     		ldr	r1, .L3+4
  43 0006 4FF44052 		mov	r2, #12288
  44 000a FFF7FEFF 		bl	memcpy
  45              	.LVL2:
  46 000e 08BD     		pop	{r3, pc}
  47              	.L4:
  48              		.align	2
  49              	.L3:
  50 0010 00000000 		.word	read_value
  51 0014 00000000 		.word	adc_buffer
  52              		.cfi_endproc
  53              	.LFE123:
  55              		.global	__aeabi_d2iz
  56              		.global	__aeabi_i2d
  57              		.global	__aeabi_dsub
  58              		.global	__aeabi_dmul
  59              		.global	__aeabi_dcmpgt
  60              		.section	.text.frequency_comparison,"ax",%progbits
  61              		.align	2
  62              		.global	frequency_comparison
  63              		.thumb
  64              		.thumb_func
  66              	frequency_comparison:
  67              	.LFB126:
  87:Src/main.c    **** }
  88:Src/main.c    **** /* USER CODE END 0 */
  89:Src/main.c    **** 
  90:Src/main.c    **** /**
  91:Src/main.c    ****   * @brief  The application entry point.
  92:Src/main.c    ****   *
  93:Src/main.c    ****   * @retval None
  94:Src/main.c    ****   */
  95:Src/main.c    **** int main(void)
  96:Src/main.c    **** {
  97:Src/main.c    ****   /* USER CODE BEGIN 1 */
  98:Src/main.c    **** 
  99:Src/main.c    ****   /* USER CODE END 1 */
 100:Src/main.c    **** 
 101:Src/main.c    ****   /* MCU Configuration----------------------------------------------------------*/
 102:Src/main.c    **** 
 103:Src/main.c    ****   /* Reset of all peripherals, Initializes the Flash interface and the Systick. */
 104:Src/main.c    ****   HAL_Init();
 105:Src/main.c    **** 
 106:Src/main.c    ****   /* USER CODE BEGIN Init */
 107:Src/main.c    **** 
ARM GAS  /var/folders/68/n33lqcg953z5y1x0pvkj58xc0000gn/T//ccukmGpE.s 			page 4


 108:Src/main.c    ****   /* USER CODE END Init */
 109:Src/main.c    **** 
 110:Src/main.c    ****   /* Configure the system clock */
 111:Src/main.c    ****   SystemClock_Config();
 112:Src/main.c    **** 
 113:Src/main.c    ****   /* USER CODE BEGIN SysInit */
 114:Src/main.c    **** 
 115:Src/main.c    ****   /* USER CODE END SysInit */
 116:Src/main.c    **** 
 117:Src/main.c    ****   /* Initialize all configured peripherals */
 118:Src/main.c    ****   MX_GPIO_Init();
 119:Src/main.c    ****   MX_DMA_Init();
 120:Src/main.c    ****   MX_TIM3_Init();
 121:Src/main.c    ****   MX_TIM1_Init();
 122:Src/main.c    ****   MX_TIM2_Init();
 123:Src/main.c    ****   MX_USART6_UART_Init();
 124:Src/main.c    ****   MX_ADC1_Init();
 125:Src/main.c    ****   MX_I2C1_Init();
 126:Src/main.c    ****   MX_TIM4_Init();
 127:Src/main.c    ****   MX_TIM9_Init();
 128:Src/main.c    ****   MX_TIM5_Init();
 129:Src/main.c    ****   /* USER CODE BEGIN 2 */
 130:Src/main.c    **** 
 131:Src/main.c    ****     /* Initialize all timer related stuffs*/
 132:Src/main.c    ****     HAL_TIM_Encoder_Start(&htim4, TIM_CHANNEL_ALL);
 133:Src/main.c    ****     HAL_TIM_Encoder_Start(&htim5, TIM_CHANNEL_ALL);
 134:Src/main.c    ****     HAL_TIM_PWM_Start(&htim3, TIM_CHANNEL_3);
 135:Src/main.c    ****     HAL_TIM_PWM_Start(&htim3, TIM_CHANNEL_2);
 136:Src/main.c    ****     HAL_TIM_PWM_Start(&htim3, TIM_CHANNEL_1);
 137:Src/main.c    ****     HAL_TIM_Base_Start(&htim9);
 138:Src/main.c    **** 
 139:Src/main.c    ****     /* Initialize other stuffs*/
 140:Src/main.c    ****     ssd1306_Init();
 141:Src/main.c    ****     //PID_t pid_s = menu();
 142:Src/main.c    ****     //ENCODER_t LEFT_ENCODER = encoder_Init();
 143:Src/main.c    ****     uint32_t servo_position = 0;
 144:Src/main.c    ****     __HAL_TIM_SET_COMPARE(&htim3, TIM_CHANNEL_3, servo_position);
 145:Src/main.c    ****     char msg[20]="";
 146:Src/main.c    ****     print("Starting...", 0);
 147:Src/main.c    **** 
 148:Src/main.c    ****   /* USER CODE END 2 */
 149:Src/main.c    **** 
 150:Src/main.c    ****   /* Infinite loop */
 151:Src/main.c    ****   /* USER CODE BEGIN WHILE */
 152:Src/main.c    ****     while (1)
 153:Src/main.c    ****     {
 154:Src/main.c    ****         //do_pid(&pid_s);
 155:Src/main.c    ****         if (HAL_GPIO_ReadPin(GPIOC, GPIO_PIN_13) == 0)
 156:Src/main.c    ****         {
 157:Src/main.c    ****             sprintf(msg, "%lu", servo_position);
 158:Src/main.c    ****             print(msg, 0);
 159:Src/main.c    ****             TIM4->CNT = servo_position;
 160:Src/main.c    ****             while (HAL_GPIO_ReadPin(GPIOC, GPIO_PIN_13) == 0)
 161:Src/main.c    ****             {
 162:Src/main.c    ****                 servo_position = (TIM4->CNT)>2000? 2000 : TIM4->CNT;
 163:Src/main.c    ****                 sprintf(msg, "%lu", servo_position);
 164:Src/main.c    ****                 print(msg, 0);
ARM GAS  /var/folders/68/n33lqcg953z5y1x0pvkj58xc0000gn/T//ccukmGpE.s 			page 5


 165:Src/main.c    ****                 __HAL_TIM_SET_COMPARE(&htim3, TIM_CHANNEL_3, servo_position);
 166:Src/main.c    ****                 __HAL_TIM_SET_COMPARE(&htim3, TIM_CHANNEL_2, servo_position);
 167:Src/main.c    ****                 __HAL_TIM_SET_COMPARE(&htim3, TIM_CHANNEL_1, servo_position);
 168:Src/main.c    ****             }
 169:Src/main.c    ****         }
 170:Src/main.c    **** 
 171:Src/main.c    ****   /* USER CODE END WHILE */
 172:Src/main.c    **** 
 173:Src/main.c    ****   /* USER CODE BEGIN 3 */
 174:Src/main.c    ****     }
 175:Src/main.c    ****   /* USER CODE END 3 */
 176:Src/main.c    **** 
 177:Src/main.c    **** }
 178:Src/main.c    **** 
 179:Src/main.c    **** /**
 180:Src/main.c    ****   * @brief System Clock Configuration
 181:Src/main.c    ****   * @retval None
 182:Src/main.c    ****   */
 183:Src/main.c    **** void SystemClock_Config(void)
 184:Src/main.c    **** {
 185:Src/main.c    **** 
 186:Src/main.c    ****   RCC_OscInitTypeDef RCC_OscInitStruct;
 187:Src/main.c    ****   RCC_ClkInitTypeDef RCC_ClkInitStruct;
 188:Src/main.c    **** 
 189:Src/main.c    ****     /**Configure the main internal regulator output voltage 
 190:Src/main.c    ****     */
 191:Src/main.c    ****   __HAL_RCC_PWR_CLK_ENABLE();
 192:Src/main.c    **** 
 193:Src/main.c    ****   __HAL_PWR_VOLTAGESCALING_CONFIG(PWR_REGULATOR_VOLTAGE_SCALE2);
 194:Src/main.c    **** 
 195:Src/main.c    ****     /**Initializes the CPU, AHB and APB busses clocks 
 196:Src/main.c    ****     */
 197:Src/main.c    ****   RCC_OscInitStruct.OscillatorType = RCC_OSCILLATORTYPE_HSI;
 198:Src/main.c    ****   RCC_OscInitStruct.HSIState = RCC_HSI_ON;
 199:Src/main.c    ****   RCC_OscInitStruct.HSICalibrationValue = 16;
 200:Src/main.c    ****   RCC_OscInitStruct.PLL.PLLState = RCC_PLL_ON;
 201:Src/main.c    ****   RCC_OscInitStruct.PLL.PLLSource = RCC_PLLSOURCE_HSI;
 202:Src/main.c    ****   RCC_OscInitStruct.PLL.PLLM = 8;
 203:Src/main.c    ****   RCC_OscInitStruct.PLL.PLLN = 72;
 204:Src/main.c    ****   RCC_OscInitStruct.PLL.PLLP = RCC_PLLP_DIV2;
 205:Src/main.c    ****   RCC_OscInitStruct.PLL.PLLQ = 4;
 206:Src/main.c    ****   if (HAL_RCC_OscConfig(&RCC_OscInitStruct) != HAL_OK)
 207:Src/main.c    ****   {
 208:Src/main.c    ****     _Error_Handler(__FILE__, __LINE__);
 209:Src/main.c    ****   }
 210:Src/main.c    **** 
 211:Src/main.c    ****     /**Initializes the CPU, AHB and APB busses clocks 
 212:Src/main.c    ****     */
 213:Src/main.c    ****   RCC_ClkInitStruct.ClockType = RCC_CLOCKTYPE_HCLK|RCC_CLOCKTYPE_SYSCLK
 214:Src/main.c    ****                               |RCC_CLOCKTYPE_PCLK1|RCC_CLOCKTYPE_PCLK2;
 215:Src/main.c    ****   RCC_ClkInitStruct.SYSCLKSource = RCC_SYSCLKSOURCE_PLLCLK;
 216:Src/main.c    ****   RCC_ClkInitStruct.AHBCLKDivider = RCC_SYSCLK_DIV1;
 217:Src/main.c    ****   RCC_ClkInitStruct.APB1CLKDivider = RCC_HCLK_DIV2;
 218:Src/main.c    ****   RCC_ClkInitStruct.APB2CLKDivider = RCC_HCLK_DIV1;
 219:Src/main.c    **** 
 220:Src/main.c    ****   if (HAL_RCC_ClockConfig(&RCC_ClkInitStruct, FLASH_LATENCY_2) != HAL_OK)
 221:Src/main.c    ****   {
ARM GAS  /var/folders/68/n33lqcg953z5y1x0pvkj58xc0000gn/T//ccukmGpE.s 			page 6


 222:Src/main.c    ****     _Error_Handler(__FILE__, __LINE__);
 223:Src/main.c    ****   }
 224:Src/main.c    **** 
 225:Src/main.c    ****     /**Configure the Systick interrupt time 
 226:Src/main.c    ****     */
 227:Src/main.c    ****   HAL_SYSTICK_Config(HAL_RCC_GetHCLKFreq()/1000);
 228:Src/main.c    **** 
 229:Src/main.c    ****     /**Configure the Systick 
 230:Src/main.c    ****     */
 231:Src/main.c    ****   HAL_SYSTICK_CLKSourceConfig(SYSTICK_CLKSOURCE_HCLK);
 232:Src/main.c    **** 
 233:Src/main.c    ****   /* SysTick_IRQn interrupt configuration */
 234:Src/main.c    ****   HAL_NVIC_SetPriority(SysTick_IRQn, 0, 0);
 235:Src/main.c    **** }
 236:Src/main.c    **** 
 237:Src/main.c    **** /* USER CODE BEGIN 4 */
 238:Src/main.c    **** 
 239:Src/main.c    **** void frequency_comparison(uint16_t freq1, uint16_t freq2, uint16_t GPIO_Pin)
 240:Src/main.c    **** {
  68              		.loc 1 240 0
  69              		.cfi_startproc
  70              		@ args = 0, pretend = 0, frame = 32
  71              		@ frame_needed = 0, uses_anonymous_args = 0
  72              	.LVL3:
  73 0000 2DE9F04F 		push	{r4, r5, r6, r7, r8, r9, r10, fp, lr}
  74              	.LCFI1:
  75              		.cfi_def_cfa_offset 36
  76              		.cfi_offset 4, -36
  77              		.cfi_offset 5, -32
  78              		.cfi_offset 6, -28
  79              		.cfi_offset 7, -24
  80              		.cfi_offset 8, -20
  81              		.cfi_offset 9, -16
  82              		.cfi_offset 10, -12
  83              		.cfi_offset 11, -8
  84              		.cfi_offset 14, -4
  85 0004 8BB0     		sub	sp, sp, #44
  86              	.LCFI2:
  87              		.cfi_def_cfa_offset 80
  88 0006 0390     		str	r0, [sp, #12]
  89 0008 8B46     		mov	fp, r1
 241:Src/main.c    ****     uint16_t offset = GPIO_Pin == IR_1_Pin ? 0 : GPIO_Pin == IR_2_Pin ? 1 : 2;
  90              		.loc 1 241 0
  91 000a 202A     		cmp	r2, #32
  92 000c 07D0     		beq	.L10
  93              		.loc 1 241 0 is_stmt 0 discriminator 1
  94 000e 102A     		cmp	r2, #16
  95 0010 02D1     		bne	.L11
  96              		.loc 1 241 0
  97 0012 4FF0010A 		mov	r10, #1
  98 0016 04E0     		b	.L6
  99              	.L11:
 100 0018 4FF0020A 		mov	r10, #2
 101 001c 01E0     		b	.L6
 102              	.L10:
 103 001e 4FF0000A 		mov	r10, #0
 104              	.L6:
ARM GAS  /var/folders/68/n33lqcg953z5y1x0pvkj58xc0000gn/T//ccukmGpE.s 			page 7


 105              	.LVL4:
 242:Src/main.c    ****     HAL_ADC_Start_DMA(&hadc1, adc_buffer, sizeof(adc_buffer)/sizeof(adc_buffer[0]));
 106              		.loc 1 242 0 is_stmt 1 discriminator 8
 107 0022 4248     		ldr	r0, .L13
 108              	.LVL5:
 109 0024 4249     		ldr	r1, .L13+4
 110              	.LVL6:
 111 0026 4FF44062 		mov	r2, #3072
 112              	.LVL7:
 113 002a FFF7FEFF 		bl	HAL_ADC_Start_DMA
 114              	.LVL8:
 243:Src/main.c    ****     //TODO calculate time needed to fill first buffer
 244:Src/main.c    ****     HAL_Delay(500);
 115              		.loc 1 244 0 discriminator 8
 116 002e 4FF4FA70 		mov	r0, #500
 117 0032 FFF7FEFF 		bl	HAL_Delay
 118              	.LVL9:
 119              	.L9:
 120              	.LBB2:
 245:Src/main.c    ****     //TODO figure out thresholds and what we want to look for
 246:Src/main.c    ****     while(1){
 247:Src/main.c    ****         char msg[20] = "";
 121              		.loc 1 247 0
 122 0036 0023     		movs	r3, #0
 123 0038 0593     		str	r3, [sp, #20]
 124 003a 0693     		str	r3, [sp, #24]
 125 003c 0793     		str	r3, [sp, #28]
 126 003e 0893     		str	r3, [sp, #32]
 127 0040 0993     		str	r3, [sp, #36]
 248:Src/main.c    ****         // Sampling frequency: 72e6/(2*3*(480+15))
 249:Src/main.c    ****         // freq one
 250:Src/main.c    ****         double val1 = goertzel(read_value, 24242, freq1, sizeof(adc_buffer)/sizeof(adc_buffer[0]), 
 128              		.loc 1 250 0
 129 0042 5FFA8AF6 		uxtb	r6, r10
 130 0046 3B4F     		ldr	r7, .L13+8
 131 0048 0096     		str	r6, [sp]
 132 004a 3846     		mov	r0, r7
 133 004c 45F6B261 		movw	r1, #24242
 134 0050 039A     		ldr	r2, [sp, #12]
 135 0052 4FF44063 		mov	r3, #3072
 136 0056 FFF7FEFF 		bl	goertzel
 137              	.LVL10:
 138 005a 55EC104B 		fmrrd	r4, r5, d0
 139              	.LVL11:
 251:Src/main.c    ****         int predec = (int)(val1 / 1);
 140              		.loc 1 251 0
 141 005e 10EE100A 		fmrs	r0, s0	@ int
 142 0062 2946     		mov	r1, r5
 143 0064 FFF7FEFF 		bl	__aeabi_d2iz
 144              	.LVL12:
 145 0068 8046     		mov	r8, r0
 146              	.LVL13:
 252:Src/main.c    ****         int postdec = (int)((val1 - predec) * 1000);
 147              		.loc 1 252 0
 148 006a FFF7FEFF 		bl	__aeabi_i2d
 149              	.LVL14:
 150 006e 0246     		mov	r2, r0
ARM GAS  /var/folders/68/n33lqcg953z5y1x0pvkj58xc0000gn/T//ccukmGpE.s 			page 8


 151 0070 0B46     		mov	r3, r1
 152 0072 2046     		mov	r0, r4
 153 0074 2946     		mov	r1, r5
 154 0076 FFF7FEFF 		bl	__aeabi_dsub
 155              	.LVL15:
 156 007a 0022     		movs	r2, #0
 157 007c 2E4B     		ldr	r3, .L13+12
 158 007e FFF7FEFF 		bl	__aeabi_dmul
 159              	.LVL16:
 160 0082 FFF7FEFF 		bl	__aeabi_d2iz
 161              	.LVL17:
 162 0086 0346     		mov	r3, r0
 163              	.LVL18:
 253:Src/main.c    ****         sprintf(msg, "%d.%d\n", predec, postdec);
 164              		.loc 1 253 0
 165 0088 05A8     		add	r0, sp, #20
 166              	.LVL19:
 167 008a 2C49     		ldr	r1, .L13+16
 168 008c 4246     		mov	r2, r8
 169 008e FFF7FEFF 		bl	sprintf
 170              	.LVL20:
 254:Src/main.c    ****         HAL_UART_Transmit(&huart6, (uint8_t *)msg, strlen(msg), 0xFFFF);
 171              		.loc 1 254 0
 172 0092 05A8     		add	r0, sp, #20
 173 0094 FFF7FEFF 		bl	strlen
 174              	.LVL21:
 175 0098 DFF8AC80 		ldr	r8, .L13+28
 176              	.LVL22:
 177 009c 82B2     		uxth	r2, r0
 178 009e 4046     		mov	r0, r8
 179 00a0 05A9     		add	r1, sp, #20
 180 00a2 4FF6FF73 		movw	r3, #65535
 181 00a6 FFF7FEFF 		bl	HAL_UART_Transmit
 182              	.LVL23:
 255:Src/main.c    ****         //freq2
 256:Src/main.c    ****         double val2 = goertzel(read_value, 24242, freq2, sizeof(adc_buffer)/sizeof(adc_buffer[0]), 
 183              		.loc 1 256 0
 184 00aa 0096     		str	r6, [sp]
 185 00ac 3846     		mov	r0, r7
 186 00ae 45F6B261 		movw	r1, #24242
 187 00b2 5A46     		mov	r2, fp
 188 00b4 4FF44063 		mov	r3, #3072
 189 00b8 FFF7FEFF 		bl	goertzel
 190              	.LVL24:
 191 00bc 57EC106B 		fmrrd	r6, r7, d0
 192              	.LVL25:
 257:Src/main.c    ****         predec = (int)(val2 / 1);
 193              		.loc 1 257 0
 194 00c0 10EE100A 		fmrs	r0, s0	@ int
 195 00c4 3946     		mov	r1, r7
 196 00c6 FFF7FEFF 		bl	__aeabi_d2iz
 197              	.LVL26:
 198 00ca 8146     		mov	r9, r0
 199              	.LVL27:
 258:Src/main.c    ****         postdec = (int)((val2 - predec) * 1000);
 200              		.loc 1 258 0
 201 00cc FFF7FEFF 		bl	__aeabi_i2d
ARM GAS  /var/folders/68/n33lqcg953z5y1x0pvkj58xc0000gn/T//ccukmGpE.s 			page 9


 202              	.LVL28:
 203 00d0 0246     		mov	r2, r0
 204 00d2 0B46     		mov	r3, r1
 205 00d4 3046     		mov	r0, r6
 206 00d6 3946     		mov	r1, r7
 207 00d8 FFF7FEFF 		bl	__aeabi_dsub
 208              	.LVL29:
 209 00dc 0022     		movs	r2, #0
 210 00de 164B     		ldr	r3, .L13+12
 211 00e0 FFF7FEFF 		bl	__aeabi_dmul
 212              	.LVL30:
 213 00e4 FFF7FEFF 		bl	__aeabi_d2iz
 214              	.LVL31:
 215 00e8 0346     		mov	r3, r0
 216              	.LVL32:
 259:Src/main.c    ****         sprintf(msg, "%d.%d", predec, postdec);
 217              		.loc 1 259 0
 218 00ea 05A8     		add	r0, sp, #20
 219              	.LVL33:
 220 00ec 1449     		ldr	r1, .L13+20
 221 00ee 4A46     		mov	r2, r9
 222 00f0 FFF7FEFF 		bl	sprintf
 223              	.LVL34:
 260:Src/main.c    ****         HAL_UART_Transmit(&huart6, (uint8_t *)msg, strlen(msg), 0xFFFF);
 224              		.loc 1 260 0
 225 00f4 05A8     		add	r0, sp, #20
 226 00f6 FFF7FEFF 		bl	strlen
 227              	.LVL35:
 228 00fa 82B2     		uxth	r2, r0
 229 00fc 4046     		mov	r0, r8
 230 00fe 05A9     		add	r1, sp, #20
 231 0100 4FF6FF73 		movw	r3, #65535
 232 0104 FFF7FEFF 		bl	HAL_UART_Transmit
 233              	.LVL36:
 261:Src/main.c    ****         //compare
 262:Src/main.c    ****         if(val1>val2){break;}
 234              		.loc 1 262 0
 235 0108 2046     		mov	r0, r4
 236 010a 2946     		mov	r1, r5
 237 010c 3246     		mov	r2, r6
 238 010e 3B46     		mov	r3, r7
 239 0110 FFF7FEFF 		bl	__aeabi_dcmpgt
 240              	.LVL37:
 241 0114 0028     		cmp	r0, #0
 242 0116 8ED0     		beq	.L9
 243              	.LBE2:
 263:Src/main.c    ****     }
 264:Src/main.c    ****     HAL_ADC_Stop_DMA(&hadc1);
 244              		.loc 1 264 0
 245 0118 0448     		ldr	r0, .L13
 246 011a FFF7FEFF 		bl	HAL_ADC_Stop_DMA
 247              	.LVL38:
 265:Src/main.c    ****     IR_INT_STATE = NOT_FLAGGED;
 248              		.loc 1 265 0
 249 011e 0022     		movs	r2, #0
 250 0120 084B     		ldr	r3, .L13+24
 251 0122 1A70     		strb	r2, [r3]
ARM GAS  /var/folders/68/n33lqcg953z5y1x0pvkj58xc0000gn/T//ccukmGpE.s 			page 10


 266:Src/main.c    **** }
 252              		.loc 1 266 0
 253 0124 0BB0     		add	sp, sp, #44
 254              	.LCFI3:
 255              		.cfi_def_cfa_offset 36
 256              		@ sp needed
 257 0126 BDE8F08F 		pop	{r4, r5, r6, r7, r8, r9, r10, fp, pc}
 258              	.LVL39:
 259              	.L14:
 260 012a 00BF     		.align	2
 261              	.L13:
 262 012c 00000000 		.word	hadc1
 263 0130 00000000 		.word	adc_buffer
 264 0134 00000000 		.word	read_value
 265 0138 00408F40 		.word	1083129856
 266 013c 00000000 		.word	.LC0
 267 0140 08000000 		.word	.LC1
 268 0144 00000000 		.word	IR_INT_STATE
 269 0148 00000000 		.word	huart6
 270              		.cfi_endproc
 271              	.LFE126:
 273              		.section	.text.print,"ax",%progbits
 274              		.align	2
 275              		.global	print
 276              		.thumb
 277              		.thumb_func
 279              	print:
 280              	.LFB127:
 267:Src/main.c    **** 
 268:Src/main.c    **** /*
 269:Src/main.c    ****  * Rows from 0 - 6
 270:Src/main.c    ****  * Reset screen when printing from row 0
 271:Src/main.c    ****  */
 272:Src/main.c    **** void print(char *msg, int row)
 273:Src/main.c    **** {
 281              		.loc 1 273 0
 282              		.cfi_startproc
 283              		@ args = 0, pretend = 0, frame = 0
 284              		@ frame_needed = 0, uses_anonymous_args = 0
 285              	.LVL40:
 286 0000 38B5     		push	{r3, r4, r5, lr}
 287              	.LCFI4:
 288              		.cfi_def_cfa_offset 16
 289              		.cfi_offset 3, -16
 290              		.cfi_offset 4, -12
 291              		.cfi_offset 5, -8
 292              		.cfi_offset 14, -4
 293 0002 0546     		mov	r5, r0
 274:Src/main.c    ****     if (row == 0)
 294              		.loc 1 274 0
 295 0004 0C46     		mov	r4, r1
 296 0006 11B9     		cbnz	r1, .L16
 275:Src/main.c    ****     {
 276:Src/main.c    ****         ssd1306_Fill(Black);
 297              		.loc 1 276 0
 298 0008 0020     		movs	r0, #0
 299              	.LVL41:
ARM GAS  /var/folders/68/n33lqcg953z5y1x0pvkj58xc0000gn/T//ccukmGpE.s 			page 11


 300 000a FFF7FEFF 		bl	ssd1306_Fill
 301              	.LVL42:
 302              	.L16:
 277:Src/main.c    ****     }
 278:Src/main.c    ****     ssd1306_SetCursor(0, row * 10);
 303              		.loc 1 278 0
 304 000e 04EB8404 		add	r4, r4, r4, lsl #2
 305              	.LVL43:
 306 0012 6100     		lsls	r1, r4, #1
 307 0014 0020     		movs	r0, #0
 308 0016 01F0FE01 		and	r1, r1, #254
 309 001a FFF7FEFF 		bl	ssd1306_SetCursor
 310              	.LVL44:
 279:Src/main.c    ****     ssd1306_WriteString(msg, Font_7x10, White);
 311              		.loc 1 279 0
 312 001e 054B     		ldr	r3, .L18
 313 0020 2846     		mov	r0, r5
 314 0022 93E80600 		ldmia	r3, {r1, r2}
 315 0026 0123     		movs	r3, #1
 316 0028 FFF7FEFF 		bl	ssd1306_WriteString
 317              	.LVL45:
 280:Src/main.c    ****     ssd1306_UpdateScreen();
 318              		.loc 1 280 0
 319 002c FFF7FEFF 		bl	ssd1306_UpdateScreen
 320              	.LVL46:
 321 0030 38BD     		pop	{r3, r4, r5, pc}
 322              	.LVL47:
 323              	.L19:
 324 0032 00BF     		.align	2
 325              	.L18:
 326 0034 00000000 		.word	Font_7x10
 327              		.cfi_endproc
 328              	.LFE127:
 330              		.section	.text.menu,"ax",%progbits
 331              		.align	2
 332              		.global	menu
 333              		.thumb
 334              		.thumb_func
 336              	menu:
 337              	.LFB128:
 281:Src/main.c    **** }
 282:Src/main.c    **** 
 283:Src/main.c    **** PID_t menu()
 284:Src/main.c    **** {
 338              		.loc 1 284 0
 339              		.cfi_startproc
 340              		@ args = 0, pretend = 0, frame = 32
 341              		@ frame_needed = 0, uses_anonymous_args = 0
 342              	.LVL48:
 343 0000 2DE9F041 		push	{r4, r5, r6, r7, r8, lr}
 344              	.LCFI5:
 345              		.cfi_def_cfa_offset 24
 346              		.cfi_offset 4, -24
 347              		.cfi_offset 5, -20
 348              		.cfi_offset 6, -16
 349              		.cfi_offset 7, -12
 350              		.cfi_offset 8, -8
ARM GAS  /var/folders/68/n33lqcg953z5y1x0pvkj58xc0000gn/T//ccukmGpE.s 			page 12


 351              		.cfi_offset 14, -4
 352 0004 8AB0     		sub	sp, sp, #40
 353              	.LCFI6:
 354              		.cfi_def_cfa_offset 64
 355 0006 0646     		mov	r6, r0
 285:Src/main.c    ****     print("Starting", 0);
 356              		.loc 1 285 0
 357 0008 6F48     		ldr	r0, .L34
 358              	.LVL49:
 359 000a 0021     		movs	r1, #0
 360 000c FFF7FEFF 		bl	print
 361              	.LVL50:
 286:Src/main.c    ****     char msg[20] = "";
 362              		.loc 1 286 0
 363 0010 0025     		movs	r5, #0
 364 0012 0595     		str	r5, [sp, #20]
 365 0014 0695     		str	r5, [sp, #24]
 366 0016 0795     		str	r5, [sp, #28]
 367 0018 0895     		str	r5, [sp, #32]
 368 001a 0995     		str	r5, [sp, #36]
 369              	.LVL51:
 287:Src/main.c    ****     int pid_select = 0;
 288:Src/main.c    ****     uint32_t values[3] = {0, 0, 0};
 370              		.loc 1 288 0
 371 001c 0295     		str	r5, [sp, #8]
 372 001e 0395     		str	r5, [sp, #12]
 373 0020 0495     		str	r5, [sp, #16]
 374              	.LVL52:
 375              	.L24:
 289:Src/main.c    ****     while (1)
 290:Src/main.c    ****     {
 291:Src/main.c    ****         if (HAL_GPIO_ReadPin(GPIOC, GPIO_PIN_13) == 0)
 376              		.loc 1 291 0
 377 0022 6A48     		ldr	r0, .L34+4
 378 0024 4FF40051 		mov	r1, #8192
 379 0028 FFF7FEFF 		bl	HAL_GPIO_ReadPin
 380              	.LVL53:
 381 002c 38BB     		cbnz	r0, .L21
 292:Src/main.c    ****         {
 293:Src/main.c    ****             sprintf(msg, "%lu", values[pid_select]);
 382              		.loc 1 293 0
 383 002e 0AAB     		add	r3, sp, #40
 384 0030 03EB8503 		add	r3, r3, r5, lsl #2
 385 0034 53F8204C 		ldr	r4, [r3, #-32]
 386 0038 05A8     		add	r0, sp, #20
 387 003a 6549     		ldr	r1, .L34+8
 388 003c 2246     		mov	r2, r4
 389 003e FFF7FEFF 		bl	sprintf
 390              	.LVL54:
 294:Src/main.c    ****             print(msg, 0);
 391              		.loc 1 294 0
 392 0042 05A8     		add	r0, sp, #20
 393 0044 0021     		movs	r1, #0
 394 0046 FFF7FEFF 		bl	print
 395              	.LVL55:
 295:Src/main.c    ****             TIM4->CNT = values[pid_select];
 396              		.loc 1 295 0
ARM GAS  /var/folders/68/n33lqcg953z5y1x0pvkj58xc0000gn/T//ccukmGpE.s 			page 13


 397 004a 624B     		ldr	r3, .L34+12
 398 004c 5C62     		str	r4, [r3, #36]
 296:Src/main.c    ****             while (HAL_GPIO_ReadPin(GPIOC, GPIO_PIN_13) == 0)
 399              		.loc 1 296 0
 400 004e 0EE0     		b	.L22
 401              	.L23:
 297:Src/main.c    ****             {
 298:Src/main.c    ****                 values[pid_select] = TIM4->CNT;
 402              		.loc 1 298 0
 403 0050 604B     		ldr	r3, .L34+12
 404 0052 5A6A     		ldr	r2, [r3, #36]
 405 0054 0AAB     		add	r3, sp, #40
 406 0056 03EB8503 		add	r3, r3, r5, lsl #2
 407 005a 43F8202C 		str	r2, [r3, #-32]
 299:Src/main.c    ****                 sprintf(msg, "%lu", values[pid_select]);
 408              		.loc 1 299 0
 409 005e 05A8     		add	r0, sp, #20
 410 0060 5B49     		ldr	r1, .L34+8
 411 0062 FFF7FEFF 		bl	sprintf
 412              	.LVL56:
 300:Src/main.c    ****                 print(msg, 0);
 413              		.loc 1 300 0
 414 0066 05A8     		add	r0, sp, #20
 415 0068 0021     		movs	r1, #0
 416 006a FFF7FEFF 		bl	print
 417              	.LVL57:
 418              	.L22:
 296:Src/main.c    ****             {
 419              		.loc 1 296 0
 420 006e 5748     		ldr	r0, .L34+4
 421 0070 4FF40051 		mov	r1, #8192
 422 0074 FFF7FEFF 		bl	HAL_GPIO_ReadPin
 423              	.LVL58:
 424 0078 0028     		cmp	r0, #0
 425 007a E9D0     		beq	.L23
 301:Src/main.c    ****             }
 302:Src/main.c    ****             ++pid_select;
 426              		.loc 1 302 0
 427 007c 0135     		adds	r5, r5, #1
 428              	.LVL59:
 429              	.L21:
 303:Src/main.c    ****         }
 304:Src/main.c    ****         if (pid_select == 3)
 430              		.loc 1 304 0
 431 007e 032D     		cmp	r5, #3
 432 0080 CFD1     		bne	.L24
 433              	.L32:
 434              	.LVL60:
 435              	.LBB3:
 305:Src/main.c    ****             break;
 306:Src/main.c    ****     }
 307:Src/main.c    ****     while (1)
 308:Src/main.c    ****     {
 309:Src/main.c    ****         int speed = 400;
 310:Src/main.c    ****         if (HAL_GPIO_ReadPin(GPIOC, GPIO_PIN_13) == 0)
 436              		.loc 1 310 0
 437 0082 5248     		ldr	r0, .L34+4
ARM GAS  /var/folders/68/n33lqcg953z5y1x0pvkj58xc0000gn/T//ccukmGpE.s 			page 14


 438 0084 4FF40051 		mov	r1, #8192
 439 0088 FFF7FEFF 		bl	HAL_GPIO_ReadPin
 440              	.LVL61:
 441 008c 0028     		cmp	r0, #0
 442 008e 43D1     		bne	.L25
 311:Src/main.c    ****         {
 312:Src/main.c    ****             if (pid_select == 3)
 443              		.loc 1 312 0
 444 0090 032D     		cmp	r5, #3
 445 0092 09D1     		bne	.L26
 313:Src/main.c    ****             {
 314:Src/main.c    ****                 HAL_TIM_PWM_Start(&htim1, TIM_CHANNEL_1);
 446              		.loc 1 314 0
 447 0094 504C     		ldr	r4, .L34+16
 448 0096 2046     		mov	r0, r4
 449 0098 0021     		movs	r1, #0
 450 009a FFF7FEFF 		bl	HAL_TIM_PWM_Start
 451              	.LVL62:
 315:Src/main.c    ****                 HAL_TIM_PWM_Stop(&htim1, TIM_CHANNEL_3);
 452              		.loc 1 315 0
 453 009e 2046     		mov	r0, r4
 454 00a0 0821     		movs	r1, #8
 455 00a2 FFF7FEFF 		bl	HAL_TIM_PWM_Stop
 456              	.LVL63:
 457 00a6 08E0     		b	.L27
 458              	.L26:
 316:Src/main.c    ****             }
 317:Src/main.c    ****             else
 318:Src/main.c    ****             {
 319:Src/main.c    ****                 HAL_TIM_PWM_Stop(&htim1, TIM_CHANNEL_1);
 459              		.loc 1 319 0
 460 00a8 4B4C     		ldr	r4, .L34+16
 461 00aa 2046     		mov	r0, r4
 462 00ac 0021     		movs	r1, #0
 463 00ae FFF7FEFF 		bl	HAL_TIM_PWM_Stop
 464              	.LVL64:
 320:Src/main.c    ****                 HAL_TIM_PWM_Start(&htim1, TIM_CHANNEL_3);
 465              		.loc 1 320 0
 466 00b2 2046     		mov	r0, r4
 467 00b4 0821     		movs	r1, #8
 468 00b6 FFF7FEFF 		bl	HAL_TIM_PWM_Start
 469              	.LVL65:
 470              	.L27:
 321:Src/main.c    ****             }
 322:Src/main.c    ****             sprintf(msg, "%d", speed);
 471              		.loc 1 322 0
 472 00ba 05A8     		add	r0, sp, #20
 473 00bc 4749     		ldr	r1, .L34+20
 474 00be 4FF4C872 		mov	r2, #400
 475 00c2 FFF7FEFF 		bl	sprintf
 476              	.LVL66:
 323:Src/main.c    ****             print(msg, 0);
 477              		.loc 1 323 0
 478 00c6 05A8     		add	r0, sp, #20
 479 00c8 0021     		movs	r1, #0
 480 00ca FFF7FEFF 		bl	print
 481              	.LVL67:
ARM GAS  /var/folders/68/n33lqcg953z5y1x0pvkj58xc0000gn/T//ccukmGpE.s 			page 15


 324:Src/main.c    ****             TIM4->CNT = speed;
 482              		.loc 1 324 0
 483 00ce 4FF4C872 		mov	r2, #400
 484 00d2 404B     		ldr	r3, .L34+12
 485 00d4 5A62     		str	r2, [r3, #36]
 325:Src/main.c    ****             while (HAL_GPIO_ReadPin(GPIOC, GPIO_PIN_13) == 0)
 486              		.loc 1 325 0
 487 00d6 17E0     		b	.L28
 488              	.LVL68:
 489              	.L31:
 326:Src/main.c    ****             {
 327:Src/main.c    ****                 speed = TIM4->CNT;
 490              		.loc 1 327 0
 491 00d8 3E4B     		ldr	r3, .L34+12
 492 00da 5C6A     		ldr	r4, [r3, #36]
 493              	.LVL69:
 328:Src/main.c    ****                 sprintf(msg, "%d", speed);
 494              		.loc 1 328 0
 495 00dc 05A8     		add	r0, sp, #20
 496 00de 3F49     		ldr	r1, .L34+20
 497 00e0 2246     		mov	r2, r4
 498 00e2 FFF7FEFF 		bl	sprintf
 499              	.LVL70:
 329:Src/main.c    ****                 print(msg, 0);
 500              		.loc 1 329 0
 501 00e6 05A8     		add	r0, sp, #20
 502 00e8 0021     		movs	r1, #0
 503 00ea FFF7FEFF 		bl	print
 504              	.LVL71:
 330:Src/main.c    ****                 if (pid_select == 3)
 505              		.loc 1 330 0
 506 00ee 032D     		cmp	r5, #3
 507 00f0 05D1     		bne	.L29
 331:Src/main.c    ****                 {
 332:Src/main.c    ****                     __HAL_TIM_SET_COMPARE(&htim1, TIM_CHANNEL_1, speed);
 508              		.loc 1 332 0
 509 00f2 394B     		ldr	r3, .L34+16
 510 00f4 1B68     		ldr	r3, [r3]
 511 00f6 5C63     		str	r4, [r3, #52]
 333:Src/main.c    ****                     LEFT_SPEED = speed;
 512              		.loc 1 333 0
 513 00f8 394B     		ldr	r3, .L34+24
 514 00fa 1C80     		strh	r4, [r3]	@ movhi
 515 00fc 04E0     		b	.L28
 516              	.L29:
 334:Src/main.c    ****                 }
 335:Src/main.c    ****                 else
 336:Src/main.c    ****                 {
 337:Src/main.c    ****                     __HAL_TIM_SET_COMPARE(&htim1, TIM_CHANNEL_3, speed);
 517              		.loc 1 337 0
 518 00fe 364B     		ldr	r3, .L34+16
 519 0100 1B68     		ldr	r3, [r3]
 520 0102 DC63     		str	r4, [r3, #60]
 338:Src/main.c    ****                     RIGHT_SPEED = speed;
 521              		.loc 1 338 0
 522 0104 374B     		ldr	r3, .L34+28
 523 0106 1C80     		strh	r4, [r3]	@ movhi
ARM GAS  /var/folders/68/n33lqcg953z5y1x0pvkj58xc0000gn/T//ccukmGpE.s 			page 16


 524              	.LVL72:
 525              	.L28:
 325:Src/main.c    ****             {
 526              		.loc 1 325 0
 527 0108 3048     		ldr	r0, .L34+4
 528 010a 4FF40051 		mov	r1, #8192
 529 010e FFF7FEFF 		bl	HAL_GPIO_ReadPin
 530              	.LVL73:
 531 0112 0028     		cmp	r0, #0
 532 0114 E0D0     		beq	.L31
 339:Src/main.c    ****                 }
 340:Src/main.c    ****             }
 341:Src/main.c    ****             ++pid_select;
 533              		.loc 1 341 0
 534 0116 0135     		adds	r5, r5, #1
 535              	.LVL74:
 536              	.L25:
 342:Src/main.c    ****         }
 343:Src/main.c    ****         if (pid_select == 5)
 537              		.loc 1 343 0
 538 0118 052D     		cmp	r5, #5
 539 011a B2D1     		bne	.L32
 540              	.LBE3:
 344:Src/main.c    ****         {
 345:Src/main.c    ****             break;
 346:Src/main.c    ****         }
 347:Src/main.c    ****     }
 348:Src/main.c    ****     HAL_TIM_PWM_Stop(&htim1, TIM_CHANNEL_1);
 541              		.loc 1 348 0
 542 011c 2E4C     		ldr	r4, .L34+16
 543 011e 2046     		mov	r0, r4
 544 0120 0021     		movs	r1, #0
 545 0122 FFF7FEFF 		bl	HAL_TIM_PWM_Stop
 546              	.LVL75:
 349:Src/main.c    ****     HAL_TIM_PWM_Stop(&htim1, TIM_CHANNEL_3);
 547              		.loc 1 349 0
 548 0126 2046     		mov	r0, r4
 549 0128 0821     		movs	r1, #8
 550 012a FFF7FEFF 		bl	HAL_TIM_PWM_Stop
 551              	.LVL76:
 350:Src/main.c    ****     sprintf(msg, "P %lu", values[0]);
 552              		.loc 1 350 0
 553 012e DDF80880 		ldr	r8, [sp, #8]
 554 0132 05A8     		add	r0, sp, #20
 555 0134 2C49     		ldr	r1, .L34+32
 556 0136 4246     		mov	r2, r8
 557 0138 FFF7FEFF 		bl	sprintf
 558              	.LVL77:
 351:Src/main.c    ****     print(msg, 0);
 559              		.loc 1 351 0
 560 013c 05A8     		add	r0, sp, #20
 561 013e 0021     		movs	r1, #0
 562 0140 FFF7FEFF 		bl	print
 563              	.LVL78:
 352:Src/main.c    ****     sprintf(msg, "D %lu", values[1]);
 564              		.loc 1 352 0
 565 0144 039F     		ldr	r7, [sp, #12]
ARM GAS  /var/folders/68/n33lqcg953z5y1x0pvkj58xc0000gn/T//ccukmGpE.s 			page 17


 566 0146 05A8     		add	r0, sp, #20
 567 0148 2849     		ldr	r1, .L34+36
 568 014a 3A46     		mov	r2, r7
 569 014c FFF7FEFF 		bl	sprintf
 570              	.LVL79:
 353:Src/main.c    ****     print(msg, 1);
 571              		.loc 1 353 0
 572 0150 05A8     		add	r0, sp, #20
 573 0152 0121     		movs	r1, #1
 574 0154 FFF7FEFF 		bl	print
 575              	.LVL80:
 354:Src/main.c    ****     sprintf(msg, "I %lu", values[2]);
 576              		.loc 1 354 0
 577 0158 049D     		ldr	r5, [sp, #16]
 578              	.LVL81:
 579 015a 05A8     		add	r0, sp, #20
 580 015c 2449     		ldr	r1, .L34+40
 581 015e 2A46     		mov	r2, r5
 582 0160 FFF7FEFF 		bl	sprintf
 583              	.LVL82:
 355:Src/main.c    ****     print(msg, 2);
 584              		.loc 1 355 0
 585 0164 05A8     		add	r0, sp, #20
 586 0166 0221     		movs	r1, #2
 587 0168 FFF7FEFF 		bl	print
 588              	.LVL83:
 356:Src/main.c    ****     sprintf(msg, "L %u", LEFT_SPEED);
 589              		.loc 1 356 0
 590 016c 05A8     		add	r0, sp, #20
 591 016e 2149     		ldr	r1, .L34+44
 592 0170 1B4B     		ldr	r3, .L34+24
 593 0172 1A88     		ldrh	r2, [r3]
 594 0174 FFF7FEFF 		bl	sprintf
 595              	.LVL84:
 357:Src/main.c    ****     print(msg, 3);
 596              		.loc 1 357 0
 597 0178 05A8     		add	r0, sp, #20
 598 017a 0321     		movs	r1, #3
 599 017c FFF7FEFF 		bl	print
 600              	.LVL85:
 358:Src/main.c    ****     sprintf(msg, "R %u", RIGHT_SPEED);
 601              		.loc 1 358 0
 602 0180 05A8     		add	r0, sp, #20
 603 0182 1D49     		ldr	r1, .L34+48
 604 0184 174B     		ldr	r3, .L34+28
 605 0186 1A88     		ldrh	r2, [r3]
 606 0188 FFF7FEFF 		bl	sprintf
 607              	.LVL86:
 359:Src/main.c    ****     print(msg, 4);
 608              		.loc 1 359 0
 609 018c 05A8     		add	r0, sp, #20
 610 018e 0421     		movs	r1, #4
 611 0190 FFF7FEFF 		bl	print
 612              	.LVL87:
 360:Src/main.c    ****     HAL_Delay(500);
 613              		.loc 1 360 0
 614 0194 4FF4FA70 		mov	r0, #500
ARM GAS  /var/folders/68/n33lqcg953z5y1x0pvkj58xc0000gn/T//ccukmGpE.s 			page 18


 615 0198 FFF7FEFF 		bl	HAL_Delay
 616              	.LVL88:
 361:Src/main.c    ****     HAL_TIM_PWM_Start(&htim1, TIM_CHANNEL_1);
 617              		.loc 1 361 0
 618 019c 2046     		mov	r0, r4
 619 019e 0021     		movs	r1, #0
 620 01a0 FFF7FEFF 		bl	HAL_TIM_PWM_Start
 621              	.LVL89:
 362:Src/main.c    ****     HAL_TIM_PWM_Start(&htim1, TIM_CHANNEL_3);
 622              		.loc 1 362 0
 623 01a4 2046     		mov	r0, r4
 624 01a6 0821     		movs	r1, #8
 625 01a8 FFF7FEFF 		bl	HAL_TIM_PWM_Start
 626              	.LVL90:
 363:Src/main.c    ****     return pid_Init(values[0], values[1], values[2], 5, 1);
 627              		.loc 1 363 0
 628 01ac 0523     		movs	r3, #5
 629 01ae 0093     		str	r3, [sp]
 630 01b0 0123     		movs	r3, #1
 631 01b2 0193     		str	r3, [sp, #4]
 632 01b4 3046     		mov	r0, r6
 633 01b6 4146     		mov	r1, r8
 634 01b8 3A46     		mov	r2, r7
 635 01ba 2B46     		mov	r3, r5
 636 01bc FFF7FEFF 		bl	pid_Init
 637              	.LVL91:
 364:Src/main.c    **** }
 638              		.loc 1 364 0
 639 01c0 3046     		mov	r0, r6
 640 01c2 0AB0     		add	sp, sp, #40
 641              	.LCFI7:
 642              		.cfi_def_cfa_offset 24
 643              		@ sp needed
 644 01c4 BDE8F081 		pop	{r4, r5, r6, r7, r8, pc}
 645              	.LVL92:
 646              	.L35:
 647              		.align	2
 648              	.L34:
 649 01c8 10000000 		.word	.LC2
 650 01cc 00080240 		.word	1073874944
 651 01d0 1C000000 		.word	.LC3
 652 01d4 00080040 		.word	1073743872
 653 01d8 00000000 		.word	htim1
 654 01dc 20000000 		.word	.LC4
 655 01e0 00000000 		.word	LEFT_SPEED
 656 01e4 00000000 		.word	RIGHT_SPEED
 657 01e8 24000000 		.word	.LC5
 658 01ec 2C000000 		.word	.LC6
 659 01f0 34000000 		.word	.LC7
 660 01f4 3C000000 		.word	.LC8
 661 01f8 44000000 		.word	.LC9
 662              		.cfi_endproc
 663              	.LFE128:
 665              		.section	.text.do_pid,"ax",%progbits
 666              		.align	2
 667              		.global	do_pid
 668              		.thumb
ARM GAS  /var/folders/68/n33lqcg953z5y1x0pvkj58xc0000gn/T//ccukmGpE.s 			page 19


 669              		.thumb_func
 671              	do_pid:
 672              	.LFB129:
 365:Src/main.c    **** 
 366:Src/main.c    **** void do_pid(PID_t *pid_struct)
 367:Src/main.c    **** {
 673              		.loc 1 367 0
 674              		.cfi_startproc
 675              		@ args = 0, pretend = 0, frame = 24
 676              		@ frame_needed = 0, uses_anonymous_args = 0
 677              	.LVL93:
 678 0000 70B5     		push	{r4, r5, r6, lr}
 679              	.LCFI8:
 680              		.cfi_def_cfa_offset 16
 681              		.cfi_offset 4, -16
 682              		.cfi_offset 5, -12
 683              		.cfi_offset 6, -8
 684              		.cfi_offset 14, -4
 685 0002 86B0     		sub	sp, sp, #24
 686              	.LCFI9:
 687              		.cfi_def_cfa_offset 40
 688 0004 0646     		mov	r6, r0
 368:Src/main.c    ****     /* Read sensors */
 369:Src/main.c    ****     uint8_t left = HAL_GPIO_ReadPin(TAPE_LEFT_GPIO_Port, TAPE_LEFT_Pin) ? 0 : 1;
 689              		.loc 1 369 0
 690 0006 2D4D     		ldr	r5, .L45
 691 0008 2846     		mov	r0, r5
 692              	.LVL94:
 693 000a 4FF48041 		mov	r1, #16384
 694 000e FFF7FEFF 		bl	HAL_GPIO_ReadPin
 695              	.LVL95:
 696 0012 B0FA80F4 		clz	r4, r0
 697 0016 6409     		lsrs	r4, r4, #5
 698              	.LVL96:
 370:Src/main.c    ****     uint8_t right = HAL_GPIO_ReadPin(TAPE_RIGHT_GPIO_Port, TAPE_RIGHT_Pin) ? 0 : 1;
 699              		.loc 1 370 0
 700 0018 2846     		mov	r0, r5
 701 001a 4FF40041 		mov	r1, #32768
 702 001e FFF7FEFF 		bl	HAL_GPIO_ReadPin
 703              	.LVL97:
 704 0022 B0FA80F0 		clz	r0, r0
 705 0026 4009     		lsrs	r0, r0, #5
 706              	.LVL98:
 371:Src/main.c    **** 
 372:Src/main.c    ****     /* Get error */
 373:Src/main.c    ****     if (left && right)
 707              		.loc 1 373 0
 708 0028 1CB1     		cbz	r4, .L37
 709              		.loc 1 373 0 is_stmt 0 discriminator 1
 710 002a 10B1     		cbz	r0, .L37
 374:Src/main.c    ****     {
 375:Src/main.c    ****         pid_struct->err = 0;
 711              		.loc 1 375 0 is_stmt 1
 712 002c 0023     		movs	r3, #0
 713 002e 3362     		str	r3, [r6, #32]
 714 0030 1AE0     		b	.L38
 715              	.L37:
ARM GAS  /var/folders/68/n33lqcg953z5y1x0pvkj58xc0000gn/T//ccukmGpE.s 			page 20


 376:Src/main.c    ****     }
 377:Src/main.c    ****     else if (left && !right)
 716              		.loc 1 377 0
 717 0032 1CB1     		cbz	r4, .L39
 718              		.loc 1 377 0 is_stmt 0 discriminator 1
 719 0034 10B9     		cbnz	r0, .L39
 378:Src/main.c    ****     {
 379:Src/main.c    ****         pid_struct->err = 1;
 720              		.loc 1 379 0 is_stmt 1
 721 0036 0123     		movs	r3, #1
 722 0038 3362     		str	r3, [r6, #32]
 723 003a 15E0     		b	.L38
 724              	.L39:
 380:Src/main.c    ****     }
 381:Src/main.c    ****     else if (!left && right)
 725              		.loc 1 381 0
 726 003c 24B9     		cbnz	r4, .L40
 727              		.loc 1 381 0 is_stmt 0 discriminator 1
 728 003e 18B1     		cbz	r0, .L40
 382:Src/main.c    ****     {
 383:Src/main.c    ****         pid_struct->err = -1;
 729              		.loc 1 383 0 is_stmt 1
 730 0040 4FF0FF33 		mov	r3, #-1
 731 0044 3362     		str	r3, [r6, #32]
 732 0046 0FE0     		b	.L38
 733              	.L40:
 384:Src/main.c    ****     }
 385:Src/main.c    ****     else if (!left && !right && (pid_struct->err < 0))
 734              		.loc 1 385 0
 735 0048 3CB9     		cbnz	r4, .L41
 736              		.loc 1 385 0 is_stmt 0 discriminator 1
 737 004a 30B9     		cbnz	r0, .L41
 738              		.loc 1 385 0 discriminator 2
 739 004c 336A     		ldr	r3, [r6, #32]
 740 004e 002B     		cmp	r3, #0
 741 0050 03DA     		bge	.L41
 386:Src/main.c    ****     {
 387:Src/main.c    ****         pid_struct->err = -5;
 742              		.loc 1 387 0 is_stmt 1
 743 0052 6FF00403 		mvn	r3, #4
 744 0056 3362     		str	r3, [r6, #32]
 745 0058 06E0     		b	.L38
 746              	.L41:
 388:Src/main.c    ****     }
 389:Src/main.c    ****     else if (!left && !right && (pid_struct->err > 0))
 747              		.loc 1 389 0
 748 005a 2CB9     		cbnz	r4, .L38
 749              		.loc 1 389 0 is_stmt 0 discriminator 1
 750 005c 20B9     		cbnz	r0, .L38
 751              		.loc 1 389 0 discriminator 2
 752 005e 336A     		ldr	r3, [r6, #32]
 753 0060 002B     		cmp	r3, #0
 754 0062 01DD     		ble	.L38
 390:Src/main.c    ****     {
 391:Src/main.c    ****         pid_struct->err = 5;
 755              		.loc 1 391 0 is_stmt 1
 756 0064 0523     		movs	r3, #5
ARM GAS  /var/folders/68/n33lqcg953z5y1x0pvkj58xc0000gn/T//ccukmGpE.s 			page 21


 757 0066 3362     		str	r3, [r6, #32]
 758              	.L38:
 392:Src/main.c    ****     }
 393:Src/main.c    **** 
 394:Src/main.c    ****     /* Get gain */
 395:Src/main.c    ****     double gain = pid_GetGain(pid_struct, &htim9);
 759              		.loc 1 395 0
 760 0068 3046     		mov	r0, r6
 761              	.LVL99:
 762 006a 1549     		ldr	r1, .L45+4
 763 006c FFF7FEFF 		bl	pid_GetGain
 764              	.LVL100:
 396:Src/main.c    ****     int g = (int)gain;
 765              		.loc 1 396 0
 766 0070 51EC100B 		fmrrd	r0, r1, d0
 767 0074 FFF7FEFF 		bl	__aeabi_d2iz
 768              	.LVL101:
 769 0078 0546     		mov	r5, r0
 770              	.LVL102:
 397:Src/main.c    ****     char msg[20]="";
 771              		.loc 1 397 0
 772 007a 0024     		movs	r4, #0
 773              	.LVL103:
 774 007c 0194     		str	r4, [sp, #4]
 775 007e 0294     		str	r4, [sp, #8]
 776 0080 0394     		str	r4, [sp, #12]
 777 0082 0494     		str	r4, [sp, #16]
 778 0084 0594     		str	r4, [sp, #20]
 398:Src/main.c    ****     sprintf(msg, "%d", g);
 779              		.loc 1 398 0
 780 0086 01A8     		add	r0, sp, #4
 781              	.LVL104:
 782 0088 0E49     		ldr	r1, .L45+8
 783 008a 2A46     		mov	r2, r5
 784 008c FFF7FEFF 		bl	sprintf
 785              	.LVL105:
 399:Src/main.c    ****     print(msg, 0);
 786              		.loc 1 399 0
 787 0090 01A8     		add	r0, sp, #4
 788 0092 2146     		mov	r1, r4
 789 0094 FFF7FEFF 		bl	print
 790              	.LVL106:
 400:Src/main.c    **** 
 401:Src/main.c    ****     /* Set Motor Speeds*/
 402:Src/main.c    ****     int lspeed = LEFT_SPEED;
 791              		.loc 1 402 0
 792 0098 0B4B     		ldr	r3, .L45+12
 793 009a 1988     		ldrh	r1, [r3]
 794              	.LVL107:
 403:Src/main.c    ****     int rspeed = RIGHT_SPEED;
 795              		.loc 1 403 0
 796 009c 0B4B     		ldr	r3, .L45+16
 797 009e 1B88     		ldrh	r3, [r3]
 798              	.LVL108:
 404:Src/main.c    ****     if (g < 0)
 799              		.loc 1 404 0
 800 00a0 A542     		cmp	r5, r4
ARM GAS  /var/folders/68/n33lqcg953z5y1x0pvkj58xc0000gn/T//ccukmGpE.s 			page 22


 801 00a2 01DA     		bge	.L42
 405:Src/main.c    ****     {
 406:Src/main.c    ****         lspeed = LEFT_SPEED - g;
 802              		.loc 1 406 0
 803 00a4 491B     		subs	r1, r1, r5
 804              	.LVL109:
 805 00a6 02E0     		b	.L43
 806              	.L42:
 407:Src/main.c    ****     }
 408:Src/main.c    ****     else if (g > 0)
 807              		.loc 1 408 0
 808 00a8 002D     		cmp	r5, #0
 809 00aa 00DD     		ble	.L43
 409:Src/main.c    ****     {
 410:Src/main.c    ****         rspeed = RIGHT_SPEED + g;
 810              		.loc 1 410 0
 811 00ac 2B44     		add	r3, r3, r5
 812              	.LVL110:
 813              	.L43:
 411:Src/main.c    ****     }
 412:Src/main.c    ****     __HAL_TIM_SET_COMPARE(&htim1, TIM_CHANNEL_1, lspeed);
 814              		.loc 1 412 0
 815 00ae 084A     		ldr	r2, .L45+20
 816 00b0 1268     		ldr	r2, [r2]
 817 00b2 5163     		str	r1, [r2, #52]
 413:Src/main.c    ****     __HAL_TIM_SET_COMPARE(&htim1, TIM_CHANNEL_3, rspeed);
 818              		.loc 1 413 0
 819 00b4 D363     		str	r3, [r2, #60]
 414:Src/main.c    **** }
 820              		.loc 1 414 0
 821 00b6 06B0     		add	sp, sp, #24
 822              	.LCFI10:
 823              		.cfi_def_cfa_offset 16
 824              		@ sp needed
 825 00b8 70BD     		pop	{r4, r5, r6, pc}
 826              	.LVL111:
 827              	.L46:
 828 00ba 00BF     		.align	2
 829              	.L45:
 830 00bc 00040240 		.word	1073873920
 831 00c0 00000000 		.word	htim9
 832 00c4 20000000 		.word	.LC4
 833 00c8 00000000 		.word	LEFT_SPEED
 834 00cc 00000000 		.word	RIGHT_SPEED
 835 00d0 00000000 		.word	htim1
 836              		.cfi_endproc
 837              	.LFE129:
 839              		.section	.text._Error_Handler,"ax",%progbits
 840              		.align	2
 841              		.global	_Error_Handler
 842              		.thumb
 843              		.thumb_func
 845              	_Error_Handler:
 846              	.LFB130:
 415:Src/main.c    **** 
 416:Src/main.c    **** /* USER CODE END 4 */
 417:Src/main.c    **** 
ARM GAS  /var/folders/68/n33lqcg953z5y1x0pvkj58xc0000gn/T//ccukmGpE.s 			page 23


 418:Src/main.c    **** /**
 419:Src/main.c    ****   * @brief  This function is executed in case of error occurrence.
 420:Src/main.c    ****   * @param  file: The file name as string.
 421:Src/main.c    ****   * @param  line: The line in file as a number.
 422:Src/main.c    ****   * @retval None
 423:Src/main.c    ****   */
 424:Src/main.c    **** void _Error_Handler(char *file, int line)
 425:Src/main.c    **** {
 847              		.loc 1 425 0
 848              		.cfi_startproc
 849              		@ Volatile: function does not return.
 850              		@ args = 0, pretend = 0, frame = 0
 851              		@ frame_needed = 0, uses_anonymous_args = 0
 852              		@ link register save eliminated.
 853              	.LVL112:
 854              	.L48:
 426:Src/main.c    ****   /* USER CODE BEGIN Error_Handler_Debug */
 427:Src/main.c    ****     /* User can add his own implementation to report the HAL error return state */
 428:Src/main.c    ****     while (1)
 429:Src/main.c    ****     {
 430:Src/main.c    ****     }
 855              		.loc 1 430 0 discriminator 1
 856 0000 FEE7     		b	.L48
 857              		.cfi_endproc
 858              	.LFE130:
 860 0002 00BF     		.section	.text.SystemClock_Config,"ax",%progbits
 861              		.align	2
 862              		.global	SystemClock_Config
 863              		.thumb
 864              		.thumb_func
 866              	SystemClock_Config:
 867              	.LFB125:
 184:Src/main.c    **** 
 868              		.loc 1 184 0
 869              		.cfi_startproc
 870              		@ args = 0, pretend = 0, frame = 80
 871              		@ frame_needed = 0, uses_anonymous_args = 0
 872 0000 00B5     		push	{lr}
 873              	.LCFI11:
 874              		.cfi_def_cfa_offset 4
 875              		.cfi_offset 14, -4
 876 0002 95B0     		sub	sp, sp, #84
 877              	.LCFI12:
 878              		.cfi_def_cfa_offset 88
 879              	.LBB4:
 191:Src/main.c    **** 
 880              		.loc 1 191 0
 881 0004 0022     		movs	r2, #0
 882 0006 0192     		str	r2, [sp, #4]
 883 0008 294B     		ldr	r3, .L53
 884 000a 196C     		ldr	r1, [r3, #64]
 885 000c 41F08051 		orr	r1, r1, #268435456
 886 0010 1964     		str	r1, [r3, #64]
 887 0012 1B6C     		ldr	r3, [r3, #64]
 888 0014 03F08053 		and	r3, r3, #268435456
 889 0018 0193     		str	r3, [sp, #4]
 890 001a 019B     		ldr	r3, [sp, #4]
ARM GAS  /var/folders/68/n33lqcg953z5y1x0pvkj58xc0000gn/T//ccukmGpE.s 			page 24


 891              	.LBE4:
 892              	.LBB5:
 193:Src/main.c    **** 
 893              		.loc 1 193 0
 894 001c 0292     		str	r2, [sp, #8]
 895 001e 2549     		ldr	r1, .L53+4
 896 0020 0B68     		ldr	r3, [r1]
 897 0022 23F44043 		bic	r3, r3, #49152
 898 0026 43F40043 		orr	r3, r3, #32768
 899 002a 0B60     		str	r3, [r1]
 900 002c 0B68     		ldr	r3, [r1]
 901 002e 03F44043 		and	r3, r3, #49152
 902 0032 0293     		str	r3, [sp, #8]
 903 0034 029B     		ldr	r3, [sp, #8]
 904              	.LBE5:
 197:Src/main.c    ****   RCC_OscInitStruct.HSIState = RCC_HSI_ON;
 905              		.loc 1 197 0
 906 0036 0223     		movs	r3, #2
 907 0038 0893     		str	r3, [sp, #32]
 198:Src/main.c    ****   RCC_OscInitStruct.HSICalibrationValue = 16;
 908              		.loc 1 198 0
 909 003a 0121     		movs	r1, #1
 910 003c 0B91     		str	r1, [sp, #44]
 199:Src/main.c    ****   RCC_OscInitStruct.PLL.PLLState = RCC_PLL_ON;
 911              		.loc 1 199 0
 912 003e 1021     		movs	r1, #16
 913 0040 0C91     		str	r1, [sp, #48]
 200:Src/main.c    ****   RCC_OscInitStruct.PLL.PLLSource = RCC_PLLSOURCE_HSI;
 914              		.loc 1 200 0
 915 0042 0E93     		str	r3, [sp, #56]
 201:Src/main.c    ****   RCC_OscInitStruct.PLL.PLLM = 8;
 916              		.loc 1 201 0
 917 0044 0F92     		str	r2, [sp, #60]
 202:Src/main.c    ****   RCC_OscInitStruct.PLL.PLLN = 72;
 918              		.loc 1 202 0
 919 0046 0822     		movs	r2, #8
 920 0048 1092     		str	r2, [sp, #64]
 203:Src/main.c    ****   RCC_OscInitStruct.PLL.PLLP = RCC_PLLP_DIV2;
 921              		.loc 1 203 0
 922 004a 4822     		movs	r2, #72
 923 004c 1192     		str	r2, [sp, #68]
 204:Src/main.c    ****   RCC_OscInitStruct.PLL.PLLQ = 4;
 924              		.loc 1 204 0
 925 004e 1293     		str	r3, [sp, #72]
 205:Src/main.c    ****   if (HAL_RCC_OscConfig(&RCC_OscInitStruct) != HAL_OK)
 926              		.loc 1 205 0
 927 0050 0423     		movs	r3, #4
 928 0052 1393     		str	r3, [sp, #76]
 206:Src/main.c    ****   {
 929              		.loc 1 206 0
 930 0054 08A8     		add	r0, sp, #32
 931 0056 FFF7FEFF 		bl	HAL_RCC_OscConfig
 932              	.LVL113:
 933 005a 18B1     		cbz	r0, .L50
 208:Src/main.c    ****   }
 934              		.loc 1 208 0
 935 005c 1648     		ldr	r0, .L53+8
ARM GAS  /var/folders/68/n33lqcg953z5y1x0pvkj58xc0000gn/T//ccukmGpE.s 			page 25


 936 005e D021     		movs	r1, #208
 937 0060 FFF7FEFF 		bl	_Error_Handler
 938              	.LVL114:
 939              	.L50:
 213:Src/main.c    ****                               |RCC_CLOCKTYPE_PCLK1|RCC_CLOCKTYPE_PCLK2;
 940              		.loc 1 213 0
 941 0064 0F23     		movs	r3, #15
 942 0066 0393     		str	r3, [sp, #12]
 215:Src/main.c    ****   RCC_ClkInitStruct.AHBCLKDivider = RCC_SYSCLK_DIV1;
 943              		.loc 1 215 0
 944 0068 0221     		movs	r1, #2
 945 006a 0491     		str	r1, [sp, #16]
 216:Src/main.c    ****   RCC_ClkInitStruct.APB1CLKDivider = RCC_HCLK_DIV2;
 946              		.loc 1 216 0
 947 006c 0023     		movs	r3, #0
 948 006e 0593     		str	r3, [sp, #20]
 217:Src/main.c    ****   RCC_ClkInitStruct.APB2CLKDivider = RCC_HCLK_DIV1;
 949              		.loc 1 217 0
 950 0070 4FF48052 		mov	r2, #4096
 951 0074 0692     		str	r2, [sp, #24]
 218:Src/main.c    **** 
 952              		.loc 1 218 0
 953 0076 0793     		str	r3, [sp, #28]
 220:Src/main.c    ****   {
 954              		.loc 1 220 0
 955 0078 03A8     		add	r0, sp, #12
 956 007a FFF7FEFF 		bl	HAL_RCC_ClockConfig
 957              	.LVL115:
 958 007e 18B1     		cbz	r0, .L51
 222:Src/main.c    ****   }
 959              		.loc 1 222 0
 960 0080 0D48     		ldr	r0, .L53+8
 961 0082 DE21     		movs	r1, #222
 962 0084 FFF7FEFF 		bl	_Error_Handler
 963              	.LVL116:
 964              	.L51:
 227:Src/main.c    **** 
 965              		.loc 1 227 0
 966 0088 FFF7FEFF 		bl	HAL_RCC_GetHCLKFreq
 967              	.LVL117:
 968 008c 0B4B     		ldr	r3, .L53+12
 969 008e A3FB0030 		umull	r3, r0, r3, r0
 970 0092 8009     		lsrs	r0, r0, #6
 971 0094 FFF7FEFF 		bl	HAL_SYSTICK_Config
 972              	.LVL118:
 231:Src/main.c    **** 
 973              		.loc 1 231 0
 974 0098 0420     		movs	r0, #4
 975 009a FFF7FEFF 		bl	HAL_SYSTICK_CLKSourceConfig
 976              	.LVL119:
 234:Src/main.c    **** }
 977              		.loc 1 234 0
 978 009e 4FF0FF30 		mov	r0, #-1
 979 00a2 0021     		movs	r1, #0
 980 00a4 0A46     		mov	r2, r1
 981 00a6 FFF7FEFF 		bl	HAL_NVIC_SetPriority
 982              	.LVL120:
ARM GAS  /var/folders/68/n33lqcg953z5y1x0pvkj58xc0000gn/T//ccukmGpE.s 			page 26


 235:Src/main.c    **** 
 983              		.loc 1 235 0
 984 00aa 15B0     		add	sp, sp, #84
 985              	.LCFI13:
 986              		.cfi_def_cfa_offset 4
 987              		@ sp needed
 988 00ac 5DF804FB 		ldr	pc, [sp], #4
 989              	.L54:
 990              		.align	2
 991              	.L53:
 992 00b0 00380240 		.word	1073887232
 993 00b4 00700040 		.word	1073770496
 994 00b8 4C000000 		.word	.LC10
 995 00bc D34D6210 		.word	274877907
 996              		.cfi_endproc
 997              	.LFE125:
 999              		.section	.text.main,"ax",%progbits
 1000              		.align	2
 1001              		.global	main
 1002              		.thumb
 1003              		.thumb_func
 1005              	main:
 1006              	.LFB124:
  96:Src/main.c    ****   /* USER CODE BEGIN 1 */
 1007              		.loc 1 96 0
 1008              		.cfi_startproc
 1009              		@ args = 0, pretend = 0, frame = 24
 1010              		@ frame_needed = 0, uses_anonymous_args = 0
 1011 0000 10B5     		push	{r4, lr}
 1012              	.LCFI14:
 1013              		.cfi_def_cfa_offset 8
 1014              		.cfi_offset 4, -8
 1015              		.cfi_offset 14, -4
 1016 0002 86B0     		sub	sp, sp, #24
 1017              	.LCFI15:
 1018              		.cfi_def_cfa_offset 32
 104:Src/main.c    **** 
 1019              		.loc 1 104 0
 1020 0004 FFF7FEFF 		bl	HAL_Init
 1021              	.LVL121:
 111:Src/main.c    **** 
 1022              		.loc 1 111 0
 1023 0008 FFF7FEFF 		bl	SystemClock_Config
 1024              	.LVL122:
 118:Src/main.c    ****   MX_DMA_Init();
 1025              		.loc 1 118 0
 1026 000c FFF7FEFF 		bl	MX_GPIO_Init
 1027              	.LVL123:
 119:Src/main.c    ****   MX_TIM3_Init();
 1028              		.loc 1 119 0
 1029 0010 FFF7FEFF 		bl	MX_DMA_Init
 1030              	.LVL124:
 120:Src/main.c    ****   MX_TIM1_Init();
 1031              		.loc 1 120 0
 1032 0014 FFF7FEFF 		bl	MX_TIM3_Init
 1033              	.LVL125:
 121:Src/main.c    ****   MX_TIM2_Init();
ARM GAS  /var/folders/68/n33lqcg953z5y1x0pvkj58xc0000gn/T//ccukmGpE.s 			page 27


 1034              		.loc 1 121 0
 1035 0018 FFF7FEFF 		bl	MX_TIM1_Init
 1036              	.LVL126:
 122:Src/main.c    ****   MX_USART6_UART_Init();
 1037              		.loc 1 122 0
 1038 001c FFF7FEFF 		bl	MX_TIM2_Init
 1039              	.LVL127:
 123:Src/main.c    ****   MX_ADC1_Init();
 1040              		.loc 1 123 0
 1041 0020 FFF7FEFF 		bl	MX_USART6_UART_Init
 1042              	.LVL128:
 124:Src/main.c    ****   MX_I2C1_Init();
 1043              		.loc 1 124 0
 1044 0024 FFF7FEFF 		bl	MX_ADC1_Init
 1045              	.LVL129:
 125:Src/main.c    ****   MX_TIM4_Init();
 1046              		.loc 1 125 0
 1047 0028 FFF7FEFF 		bl	MX_I2C1_Init
 1048              	.LVL130:
 126:Src/main.c    ****   MX_TIM9_Init();
 1049              		.loc 1 126 0
 1050 002c FFF7FEFF 		bl	MX_TIM4_Init
 1051              	.LVL131:
 127:Src/main.c    ****   MX_TIM5_Init();
 1052              		.loc 1 127 0
 1053 0030 FFF7FEFF 		bl	MX_TIM9_Init
 1054              	.LVL132:
 128:Src/main.c    ****   /* USER CODE BEGIN 2 */
 1055              		.loc 1 128 0
 1056 0034 FFF7FEFF 		bl	MX_TIM5_Init
 1057              	.LVL133:
 132:Src/main.c    ****     HAL_TIM_Encoder_Start(&htim5, TIM_CHANNEL_ALL);
 1058              		.loc 1 132 0
 1059 0038 2C48     		ldr	r0, .L63
 1060 003a 1821     		movs	r1, #24
 1061 003c FFF7FEFF 		bl	HAL_TIM_Encoder_Start
 1062              	.LVL134:
 133:Src/main.c    ****     HAL_TIM_PWM_Start(&htim3, TIM_CHANNEL_3);
 1063              		.loc 1 133 0
 1064 0040 2B48     		ldr	r0, .L63+4
 1065 0042 1821     		movs	r1, #24
 1066 0044 FFF7FEFF 		bl	HAL_TIM_Encoder_Start
 1067              	.LVL135:
 134:Src/main.c    ****     HAL_TIM_PWM_Start(&htim3, TIM_CHANNEL_2);
 1068              		.loc 1 134 0
 1069 0048 2A4C     		ldr	r4, .L63+8
 1070 004a 2046     		mov	r0, r4
 1071 004c 0821     		movs	r1, #8
 1072 004e FFF7FEFF 		bl	HAL_TIM_PWM_Start
 1073              	.LVL136:
 135:Src/main.c    ****     HAL_TIM_PWM_Start(&htim3, TIM_CHANNEL_1);
 1074              		.loc 1 135 0
 1075 0052 2046     		mov	r0, r4
 1076 0054 0421     		movs	r1, #4
 1077 0056 FFF7FEFF 		bl	HAL_TIM_PWM_Start
 1078              	.LVL137:
 136:Src/main.c    ****     HAL_TIM_Base_Start(&htim9);
ARM GAS  /var/folders/68/n33lqcg953z5y1x0pvkj58xc0000gn/T//ccukmGpE.s 			page 28


 1079              		.loc 1 136 0
 1080 005a 2046     		mov	r0, r4
 1081 005c 0021     		movs	r1, #0
 1082 005e FFF7FEFF 		bl	HAL_TIM_PWM_Start
 1083              	.LVL138:
 137:Src/main.c    **** 
 1084              		.loc 1 137 0
 1085 0062 2548     		ldr	r0, .L63+12
 1086 0064 FFF7FEFF 		bl	HAL_TIM_Base_Start
 1087              	.LVL139:
 140:Src/main.c    ****     //PID_t pid_s = menu();
 1088              		.loc 1 140 0
 1089 0068 FFF7FEFF 		bl	ssd1306_Init
 1090              	.LVL140:
 144:Src/main.c    ****     char msg[20]="";
 1091              		.loc 1 144 0
 1092 006c 2368     		ldr	r3, [r4]
 1093 006e 0024     		movs	r4, #0
 1094 0070 DC63     		str	r4, [r3, #60]
 145:Src/main.c    ****     print("Starting...", 0);
 1095              		.loc 1 145 0
 1096 0072 0194     		str	r4, [sp, #4]
 1097 0074 0294     		str	r4, [sp, #8]
 1098 0076 0394     		str	r4, [sp, #12]
 1099 0078 0494     		str	r4, [sp, #16]
 1100 007a 0594     		str	r4, [sp, #20]
 146:Src/main.c    **** 
 1101              		.loc 1 146 0
 1102 007c 1F48     		ldr	r0, .L63+16
 1103 007e 2146     		mov	r1, r4
 1104 0080 FFF7FEFF 		bl	print
 1105              	.LVL141:
 1106              	.L56:
 155:Src/main.c    ****         {
 1107              		.loc 1 155 0
 1108 0084 1E48     		ldr	r0, .L63+20
 1109 0086 4FF40051 		mov	r1, #8192
 1110 008a FFF7FEFF 		bl	HAL_GPIO_ReadPin
 1111              	.LVL142:
 1112 008e 0028     		cmp	r0, #0
 1113 0090 F8D1     		bne	.L56
 157:Src/main.c    ****             print(msg, 0);
 1114              		.loc 1 157 0
 1115 0092 01A8     		add	r0, sp, #4
 1116 0094 1B49     		ldr	r1, .L63+24
 1117 0096 2246     		mov	r2, r4
 1118 0098 FFF7FEFF 		bl	sprintf
 1119              	.LVL143:
 158:Src/main.c    ****             TIM4->CNT = servo_position;
 1120              		.loc 1 158 0
 1121 009c 01A8     		add	r0, sp, #4
 1122 009e 0021     		movs	r1, #0
 1123 00a0 FFF7FEFF 		bl	print
 1124              	.LVL144:
 159:Src/main.c    ****             while (HAL_GPIO_ReadPin(GPIOC, GPIO_PIN_13) == 0)
 1125              		.loc 1 159 0
 1126 00a4 184B     		ldr	r3, .L63+28
ARM GAS  /var/folders/68/n33lqcg953z5y1x0pvkj58xc0000gn/T//ccukmGpE.s 			page 29


 1127 00a6 5C62     		str	r4, [r3, #36]
 160:Src/main.c    ****             {
 1128              		.loc 1 160 0
 1129 00a8 17E0     		b	.L57
 1130              	.L59:
 162:Src/main.c    ****                 sprintf(msg, "%lu", servo_position);
 1131              		.loc 1 162 0
 1132 00aa 174B     		ldr	r3, .L63+28
 1133 00ac 5B6A     		ldr	r3, [r3, #36]
 1134 00ae B3F5FA6F 		cmp	r3, #2000
 1135 00b2 02D8     		bhi	.L61
 162:Src/main.c    ****                 sprintf(msg, "%lu", servo_position);
 1136              		.loc 1 162 0 is_stmt 0 discriminator 1
 1137 00b4 144B     		ldr	r3, .L63+28
 1138 00b6 5C6A     		ldr	r4, [r3, #36]
 1139              	.LVL145:
 1140 00b8 01E0     		b	.L58
 1141              	.LVL146:
 1142              	.L61:
 162:Src/main.c    ****                 sprintf(msg, "%lu", servo_position);
 1143              		.loc 1 162 0
 1144 00ba 4FF4FA64 		mov	r4, #2000
 1145              	.LVL147:
 1146              	.L58:
 163:Src/main.c    ****                 print(msg, 0);
 1147              		.loc 1 163 0 is_stmt 1 discriminator 4
 1148 00be 01A8     		add	r0, sp, #4
 1149 00c0 1049     		ldr	r1, .L63+24
 1150 00c2 2246     		mov	r2, r4
 1151 00c4 FFF7FEFF 		bl	sprintf
 1152              	.LVL148:
 164:Src/main.c    ****                 __HAL_TIM_SET_COMPARE(&htim3, TIM_CHANNEL_3, servo_position);
 1153              		.loc 1 164 0 discriminator 4
 1154 00c8 01A8     		add	r0, sp, #4
 1155 00ca 0021     		movs	r1, #0
 1156 00cc FFF7FEFF 		bl	print
 1157              	.LVL149:
 165:Src/main.c    ****                 __HAL_TIM_SET_COMPARE(&htim3, TIM_CHANNEL_2, servo_position);
 1158              		.loc 1 165 0 discriminator 4
 1159 00d0 084B     		ldr	r3, .L63+8
 1160 00d2 1B68     		ldr	r3, [r3]
 1161 00d4 DC63     		str	r4, [r3, #60]
 166:Src/main.c    ****                 __HAL_TIM_SET_COMPARE(&htim3, TIM_CHANNEL_1, servo_position);
 1162              		.loc 1 166 0 discriminator 4
 1163 00d6 9C63     		str	r4, [r3, #56]
 167:Src/main.c    ****             }
 1164              		.loc 1 167 0 discriminator 4
 1165 00d8 5C63     		str	r4, [r3, #52]
 1166              	.L57:
 160:Src/main.c    ****             {
 1167              		.loc 1 160 0
 1168 00da 0948     		ldr	r0, .L63+20
 1169 00dc 4FF40051 		mov	r1, #8192
 1170 00e0 FFF7FEFF 		bl	HAL_GPIO_ReadPin
 1171              	.LVL150:
 1172 00e4 0028     		cmp	r0, #0
 1173 00e6 E0D0     		beq	.L59
ARM GAS  /var/folders/68/n33lqcg953z5y1x0pvkj58xc0000gn/T//ccukmGpE.s 			page 30


 1174 00e8 CCE7     		b	.L56
 1175              	.L64:
 1176 00ea 00BF     		.align	2
 1177              	.L63:
 1178 00ec 00000000 		.word	htim4
 1179 00f0 00000000 		.word	htim5
 1180 00f4 00000000 		.word	htim3
 1181 00f8 00000000 		.word	htim9
 1182 00fc 58000000 		.word	.LC11
 1183 0100 00080240 		.word	1073874944
 1184 0104 1C000000 		.word	.LC3
 1185 0108 00080040 		.word	1073743872
 1186              		.cfi_endproc
 1187              	.LFE124:
 1189              		.comm	read_value,12288,4
 1190              		.comm	adc_buffer,12288,4
 1191              		.comm	RIGHT_SPEED,2,2
 1192              		.comm	LEFT_SPEED,2,2
 1193              		.comm	last_time,4,4
 1194              		.section	.rodata.str1.4,"aMS",%progbits,1
 1195              		.align	2
 1196              	.LC0:
 1197 0000 25642E25 		.ascii	"%d.%d\012\000"
 1197      640A00
 1198 0007 00       		.space	1
 1199              	.LC1:
 1200 0008 25642E25 		.ascii	"%d.%d\000"
 1200      6400
 1201 000e 0000     		.space	2
 1202              	.LC2:
 1203 0010 53746172 		.ascii	"Starting\000"
 1203      74696E67 
 1203      00
 1204 0019 000000   		.space	3
 1205              	.LC3:
 1206 001c 256C7500 		.ascii	"%lu\000"
 1207              	.LC4:
 1208 0020 256400   		.ascii	"%d\000"
 1209 0023 00       		.space	1
 1210              	.LC5:
 1211 0024 5020256C 		.ascii	"P %lu\000"
 1211      7500
 1212 002a 0000     		.space	2
 1213              	.LC6:
 1214 002c 4420256C 		.ascii	"D %lu\000"
 1214      7500
 1215 0032 0000     		.space	2
 1216              	.LC7:
 1217 0034 4920256C 		.ascii	"I %lu\000"
 1217      7500
 1218 003a 0000     		.space	2
 1219              	.LC8:
 1220 003c 4C202575 		.ascii	"L %u\000"
 1220      00
 1221 0041 000000   		.space	3
 1222              	.LC9:
 1223 0044 52202575 		.ascii	"R %u\000"
ARM GAS  /var/folders/68/n33lqcg953z5y1x0pvkj58xc0000gn/T//ccukmGpE.s 			page 31


 1223      00
 1224 0049 000000   		.space	3
 1225              	.LC10:
 1226 004c 5372632F 		.ascii	"Src/main.c\000"
 1226      6D61696E 
 1226      2E6300
 1227 0057 00       		.space	1
 1228              	.LC11:
 1229 0058 53746172 		.ascii	"Starting...\000"
 1229      74696E67 
 1229      2E2E2E00 
 1230              		.text
 1231              	.Letext0:
 1232              		.file 2 "Drivers/CMSIS/Device/ST/STM32F4xx/Include/stm32f401xe.h"
 1233              		.file 3 "/usr/local/Cellar/arm-none-eabi-gcc/20150921/arm-none-eabi/include/machine/_default_types
 1234              		.file 4 "/usr/local/Cellar/arm-none-eabi-gcc/20150921/arm-none-eabi/include/sys/_stdint.h"
 1235              		.file 5 "/usr/local/Cellar/arm-none-eabi-gcc/20150921/lib/gcc/arm-none-eabi/4.9.3/include/stddef.h
 1236              		.file 6 "Drivers/STM32F4xx_HAL_Driver/Inc/stm32f4xx_hal_def.h"
 1237              		.file 7 "Drivers/STM32F4xx_HAL_Driver/Inc/stm32f4xx_hal_rcc_ex.h"
 1238              		.file 8 "Drivers/STM32F4xx_HAL_Driver/Inc/stm32f4xx_hal_rcc.h"
 1239              		.file 9 "Drivers/STM32F4xx_HAL_Driver/Inc/stm32f4xx_hal_gpio.h"
 1240              		.file 10 "Drivers/STM32F4xx_HAL_Driver/Inc/stm32f4xx_hal_dma.h"
 1241              		.file 11 "Drivers/STM32F4xx_HAL_Driver/Inc/stm32f4xx_hal_adc.h"
 1242              		.file 12 "Drivers/STM32F4xx_HAL_Driver/Inc/stm32f4xx_hal_tim.h"
 1243              		.file 13 "Drivers/STM32F4xx_HAL_Driver/Inc/stm32f4xx_hal_uart.h"
 1244              		.file 14 "Inc/fonts.h"
 1245              		.file 15 "Inc/ssd1306.h"
 1246              		.file 16 "Inc/pid.h"
 1247              		.file 17 "Drivers/CMSIS/Include/core_cm4.h"
 1248              		.file 18 "Inc/adc.h"
 1249              		.file 19 "Inc/tim.h"
 1250              		.file 20 "Inc/usart.h"
 1251              		.file 21 "Inc/extern_vars.h"
 1252              		.file 22 "Inc/filter.h"
 1253              		.file 23 "/usr/local/Cellar/arm-none-eabi-gcc/20150921/arm-none-eabi/include/stdio.h"
 1254              		.file 24 "/usr/local/Cellar/arm-none-eabi-gcc/20150921/arm-none-eabi/include/string.h"
 1255              		.file 25 "Drivers/STM32F4xx_HAL_Driver/Inc/stm32f4xx_hal.h"
 1256              		.file 26 "Drivers/STM32F4xx_HAL_Driver/Inc/stm32f4xx_hal_cortex.h"
 1257              		.file 27 "Inc/gpio.h"
 1258              		.file 28 "Inc/dma.h"
 1259              		.file 29 "Inc/i2c.h"
ARM GAS  /var/folders/68/n33lqcg953z5y1x0pvkj58xc0000gn/T//ccukmGpE.s 			page 32


DEFINED SYMBOLS
                            *ABS*:0000000000000000 main.c
/var/folders/68/n33lqcg953z5y1x0pvkj58xc0000gn/T//ccukmGpE.s:21     .text.HAL_ADC_ConvCpltCallback:0000000000000000 $t
/var/folders/68/n33lqcg953z5y1x0pvkj58xc0000gn/T//ccukmGpE.s:26     .text.HAL_ADC_ConvCpltCallback:0000000000000000 HAL_ADC_ConvCpltCallback
/var/folders/68/n33lqcg953z5y1x0pvkj58xc0000gn/T//ccukmGpE.s:50     .text.HAL_ADC_ConvCpltCallback:0000000000000010 $d
                            *COM*:0000000000003000 read_value
                            *COM*:0000000000003000 adc_buffer
/var/folders/68/n33lqcg953z5y1x0pvkj58xc0000gn/T//ccukmGpE.s:61     .text.frequency_comparison:0000000000000000 $t
/var/folders/68/n33lqcg953z5y1x0pvkj58xc0000gn/T//ccukmGpE.s:66     .text.frequency_comparison:0000000000000000 frequency_comparison
/var/folders/68/n33lqcg953z5y1x0pvkj58xc0000gn/T//ccukmGpE.s:262    .text.frequency_comparison:000000000000012c $d
/var/folders/68/n33lqcg953z5y1x0pvkj58xc0000gn/T//ccukmGpE.s:274    .text.print:0000000000000000 $t
/var/folders/68/n33lqcg953z5y1x0pvkj58xc0000gn/T//ccukmGpE.s:279    .text.print:0000000000000000 print
/var/folders/68/n33lqcg953z5y1x0pvkj58xc0000gn/T//ccukmGpE.s:326    .text.print:0000000000000034 $d
/var/folders/68/n33lqcg953z5y1x0pvkj58xc0000gn/T//ccukmGpE.s:331    .text.menu:0000000000000000 $t
/var/folders/68/n33lqcg953z5y1x0pvkj58xc0000gn/T//ccukmGpE.s:336    .text.menu:0000000000000000 menu
/var/folders/68/n33lqcg953z5y1x0pvkj58xc0000gn/T//ccukmGpE.s:649    .text.menu:00000000000001c8 $d
                            *COM*:0000000000000002 LEFT_SPEED
                            *COM*:0000000000000002 RIGHT_SPEED
/var/folders/68/n33lqcg953z5y1x0pvkj58xc0000gn/T//ccukmGpE.s:666    .text.do_pid:0000000000000000 $t
/var/folders/68/n33lqcg953z5y1x0pvkj58xc0000gn/T//ccukmGpE.s:671    .text.do_pid:0000000000000000 do_pid
/var/folders/68/n33lqcg953z5y1x0pvkj58xc0000gn/T//ccukmGpE.s:830    .text.do_pid:00000000000000bc $d
/var/folders/68/n33lqcg953z5y1x0pvkj58xc0000gn/T//ccukmGpE.s:840    .text._Error_Handler:0000000000000000 $t
/var/folders/68/n33lqcg953z5y1x0pvkj58xc0000gn/T//ccukmGpE.s:845    .text._Error_Handler:0000000000000000 _Error_Handler
/var/folders/68/n33lqcg953z5y1x0pvkj58xc0000gn/T//ccukmGpE.s:861    .text.SystemClock_Config:0000000000000000 $t
/var/folders/68/n33lqcg953z5y1x0pvkj58xc0000gn/T//ccukmGpE.s:866    .text.SystemClock_Config:0000000000000000 SystemClock_Config
/var/folders/68/n33lqcg953z5y1x0pvkj58xc0000gn/T//ccukmGpE.s:992    .text.SystemClock_Config:00000000000000b0 $d
/var/folders/68/n33lqcg953z5y1x0pvkj58xc0000gn/T//ccukmGpE.s:1000   .text.main:0000000000000000 $t
/var/folders/68/n33lqcg953z5y1x0pvkj58xc0000gn/T//ccukmGpE.s:1005   .text.main:0000000000000000 main
/var/folders/68/n33lqcg953z5y1x0pvkj58xc0000gn/T//ccukmGpE.s:1178   .text.main:00000000000000ec $d
                            *COM*:0000000000000004 last_time
/var/folders/68/n33lqcg953z5y1x0pvkj58xc0000gn/T//ccukmGpE.s:1195   .rodata.str1.4:0000000000000000 $d
                     .debug_frame:0000000000000010 $d

UNDEFINED SYMBOLS
memcpy
__aeabi_d2iz
__aeabi_i2d
__aeabi_dsub
__aeabi_dmul
__aeabi_dcmpgt
HAL_ADC_Start_DMA
HAL_Delay
goertzel
sprintf
strlen
HAL_UART_Transmit
HAL_ADC_Stop_DMA
hadc1
IR_INT_STATE
huart6
ssd1306_Fill
ssd1306_SetCursor
ssd1306_WriteString
ssd1306_UpdateScreen
Font_7x10
HAL_GPIO_ReadPin
HAL_TIM_PWM_Start
ARM GAS  /var/folders/68/n33lqcg953z5y1x0pvkj58xc0000gn/T//ccukmGpE.s 			page 33


HAL_TIM_PWM_Stop
pid_Init
htim1
pid_GetGain
htim9
HAL_RCC_OscConfig
HAL_RCC_ClockConfig
HAL_RCC_GetHCLKFreq
HAL_SYSTICK_Config
HAL_SYSTICK_CLKSourceConfig
HAL_NVIC_SetPriority
HAL_Init
MX_GPIO_Init
MX_DMA_Init
MX_TIM3_Init
MX_TIM1_Init
MX_TIM2_Init
MX_USART6_UART_Init
MX_ADC1_Init
MX_I2C1_Init
MX_TIM4_Init
MX_TIM9_Init
MX_TIM5_Init
HAL_TIM_Encoder_Start
HAL_TIM_Base_Start
ssd1306_Init
htim4
htim5
htim3
