ARM GAS  /var/folders/68/n33lqcg953z5y1x0pvkj58xc0000gn/T//ccEgjW3d.s 			page 1


   1              		.syntax unified
   2              		.cpu cortex-m4
   3              		.eabi_attribute 27, 1
   4              		.eabi_attribute 28, 1
   5              		.fpu fpv4-sp-d16
   6              		.eabi_attribute 20, 1
   7              		.eabi_attribute 21, 1
   8              		.eabi_attribute 23, 3
   9              		.eabi_attribute 24, 1
  10              		.eabi_attribute 25, 1
  11              		.eabi_attribute 26, 1
  12              		.eabi_attribute 30, 1
  13              		.eabi_attribute 34, 1
  14              		.eabi_attribute 18, 4
  15              		.thumb
  16              		.file	"main.c"
  17              		.text
  18              	.Ltext0:
  19              		.cfi_sections	.debug_frame
  20              		.section	.text.HAL_ADC_ConvCpltCallback,"ax",%progbits
  21              		.align	2
  22              		.global	HAL_ADC_ConvCpltCallback
  23              		.thumb
  24              		.thumb_func
  26              	HAL_ADC_ConvCpltCallback:
  27              	.LFB123:
  28              		.file 1 "Src/main.c"
   1:Src/main.c    **** 
   2:Src/main.c    **** /**
   3:Src/main.c    ****   ******************************************************************************
   4:Src/main.c    ****   * @file           : main.c
   5:Src/main.c    ****   * @brief          : Main program body
   6:Src/main.c    ****   ******************************************************************************
   7:Src/main.c    ****   ** This notice applies to any and all portions of this file
   8:Src/main.c    ****   * that are not between comment pairs USER CODE BEGIN and
   9:Src/main.c    ****   * USER CODE END. Other portions of this file, whether 
  10:Src/main.c    ****   * inserted by the user or by software development tools
  11:Src/main.c    ****   * are owned by their respective copyright owners.
  12:Src/main.c    ****   *
  13:Src/main.c    ****   * COPYRIGHT(c) 2018 STMicroelectronics
  14:Src/main.c    ****   *
  15:Src/main.c    ****   * Redistribution and use in source and binary forms, with or without modification,
  16:Src/main.c    ****   * are permitted provided that the following conditions are met:
  17:Src/main.c    ****   *   1. Redistributions of source code must retain the above copyright notice,
  18:Src/main.c    ****   *      this list of conditions and the following disclaimer.
  19:Src/main.c    ****   *   2. Redistributions in binary form must reproduce the above copyright notice,
  20:Src/main.c    ****   *      this list of conditions and the following disclaimer in the documentation
  21:Src/main.c    ****   *      and/or other materials provided with the distribution.
  22:Src/main.c    ****   *   3. Neither the name of STMicroelectronics nor the names of its contributors
  23:Src/main.c    ****   *      may be used to endorse or promote products derived from this software
  24:Src/main.c    ****   *      without specific prior written permission.
  25:Src/main.c    ****   *
  26:Src/main.c    ****   * THIS SOFTWARE IS PROVIDED BY THE COPYRIGHT HOLDERS AND CONTRIBUTORS "AS IS"
  27:Src/main.c    ****   * AND ANY EXPRESS OR IMPLIED WARRANTIES, INCLUDING, BUT NOT LIMITED TO, THE
  28:Src/main.c    ****   * IMPLIED WARRANTIES OF MERCHANTABILITY AND FITNESS FOR A PARTICULAR PURPOSE ARE
  29:Src/main.c    ****   * DISCLAIMED. IN NO EVENT SHALL THE COPYRIGHT HOLDER OR CONTRIBUTORS BE LIABLE
  30:Src/main.c    ****   * FOR ANY DIRECT, INDIRECT, INCIDENTAL, SPECIAL, EXEMPLARY, OR CONSEQUENTIAL
ARM GAS  /var/folders/68/n33lqcg953z5y1x0pvkj58xc0000gn/T//ccEgjW3d.s 			page 2


  31:Src/main.c    ****   * DAMAGES (INCLUDING, BUT NOT LIMITED TO, PROCUREMENT OF SUBSTITUTE GOODS OR
  32:Src/main.c    ****   * SERVICES; LOSS OF USE, DATA, OR PROFITS; OR BUSINESS INTERRUPTION) HOWEVER
  33:Src/main.c    ****   * CAUSED AND ON ANY THEORY OF LIABILITY, WHETHER IN CONTRACT, STRICT LIABILITY,
  34:Src/main.c    ****   * OR TORT (INCLUDING NEGLIGENCE OR OTHERWISE) ARISING IN ANY WAY OUT OF THE USE
  35:Src/main.c    ****   * OF THIS SOFTWARE, EVEN IF ADVISED OF THE POSSIBILITY OF SUCH DAMAGE.
  36:Src/main.c    ****   *
  37:Src/main.c    ****   ******************************************************************************
  38:Src/main.c    ****   */
  39:Src/main.c    **** /* Includes ------------------------------------------------------------------*/
  40:Src/main.c    **** #include "main.h"
  41:Src/main.c    **** #include "stm32f4xx_hal.h"
  42:Src/main.c    **** #include "adc.h"
  43:Src/main.c    **** #include "dma.h"
  44:Src/main.c    **** #include "i2c.h"
  45:Src/main.c    **** #include "tim.h"
  46:Src/main.c    **** #include "usart.h"
  47:Src/main.c    **** #include "gpio.h"
  48:Src/main.c    **** 
  49:Src/main.c    **** /* USER CODE BEGIN Includes */
  50:Src/main.c    **** #include "fonts.h"
  51:Src/main.c    **** #include "ssd1306.h"
  52:Src/main.c    **** #include "encoder.h"
  53:Src/main.c    **** #include "pid.h"
  54:Src/main.c    **** #include "filter.h"
  55:Src/main.c    **** #include "extern_vars.h"
  56:Src/main.c    **** #include <String.h>
  57:Src/main.c    **** #include "claw.h"
  58:Src/main.c    **** 
  59:Src/main.c    **** /* USER CODE END Includes */
  60:Src/main.c    **** 
  61:Src/main.c    **** /* Private variables ---------------------------------------------------------*/
  62:Src/main.c    **** 
  63:Src/main.c    **** /* USER CODE BEGIN PV */
  64:Src/main.c    **** /* Private variables ---------------------------------------------------------*/
  65:Src/main.c    **** uint16_t LEFT_SPEED = BASE_SPEED;
  66:Src/main.c    **** uint16_t RIGHT_SPEED = BASE_SPEED;
  67:Src/main.c    **** uint32_t dma_buffer[2048];
  68:Src/main.c    **** uint32_t adc_values[2048];
  69:Src/main.c    **** 
  70:Src/main.c    **** /* USER CODE END PV */
  71:Src/main.c    **** 
  72:Src/main.c    **** /* Private function prototypes -----------------------------------------------*/
  73:Src/main.c    **** void SystemClock_Config(void);
  74:Src/main.c    **** 
  75:Src/main.c    **** /* USER CODE BEGIN PFP */
  76:Src/main.c    **** /* Private function prototypes -----------------------------------------------*/
  77:Src/main.c    **** void print(char msg[], int row);
  78:Src/main.c    **** PID_t menu();
  79:Src/main.c    **** float calculate_heading(uint32_t adc_val);
  80:Src/main.c    **** void encoder_pid(PID_t *enc_pid);
  81:Src/main.c    **** void set_motor_speed(uint32_t channel, uint32_t speed);
  82:Src/main.c    **** void turn();
  83:Src/main.c    **** void turn_deg(uint8_t);
  84:Src/main.c    **** void alarm_detect();
  85:Src/main.c    **** 
  86:Src/main.c    **** /* USER CODE END PFP */
  87:Src/main.c    **** 
ARM GAS  /var/folders/68/n33lqcg953z5y1x0pvkj58xc0000gn/T//ccEgjW3d.s 			page 3


  88:Src/main.c    **** /* USER CODE BEGIN 0 */
  89:Src/main.c    **** /**
  90:Src/main.c    ****  * @brief Circu;ar DMA buffer loading on each full buffer
  91:Src/main.c    ****  * DMA uses dma_buffer, transfers data to adc_values for us to use
  92:Src/main.c    ****  * Order of buffer: ir1, pi, ir1, ...
  93:Src/main.c    ****  */
  94:Src/main.c    **** void HAL_ADC_ConvCpltCallback(ADC_HandleTypeDef *hadc)
  95:Src/main.c    **** {
  29              		.loc 1 95 0
  30              		.cfi_startproc
  31              		@ args = 0, pretend = 0, frame = 0
  32              		@ frame_needed = 0, uses_anonymous_args = 0
  33              	.LVL0:
  34 0000 08B5     		push	{r3, lr}
  35              	.LCFI0:
  36              		.cfi_def_cfa_offset 8
  37              		.cfi_offset 3, -8
  38              		.cfi_offset 14, -4
  96:Src/main.c    ****     memcpy(adc_values, dma_buffer, sizeof(dma_buffer));
  39              		.loc 1 96 0
  40 0002 0348     		ldr	r0, .L3
  41              	.LVL1:
  42 0004 0349     		ldr	r1, .L3+4
  43 0006 4FF40052 		mov	r2, #8192
  44 000a FFF7FEFF 		bl	memcpy
  45              	.LVL2:
  46 000e 08BD     		pop	{r3, pc}
  47              	.L4:
  48              		.align	2
  49              	.L3:
  50 0010 00000000 		.word	adc_values
  51 0014 00000000 		.word	dma_buffer
  52              		.cfi_endproc
  53              	.LFE123:
  55              		.global	__aeabi_ui2d
  56              		.global	__aeabi_dmul
  57              		.global	__aeabi_dsub
  58              		.global	__aeabi_d2f
  59              		.section	.text.calculate_heading,"ax",%progbits
  60              		.align	2
  61              		.global	calculate_heading
  62              		.thumb
  63              		.thumb_func
  65              	calculate_heading:
  66              	.LFB128:
  97:Src/main.c    **** }
  98:Src/main.c    **** /* USER CODE END 0 */
  99:Src/main.c    **** 
 100:Src/main.c    **** /**
 101:Src/main.c    ****   * @brief  The application entry point.
 102:Src/main.c    ****   *
 103:Src/main.c    ****   * @retval None
 104:Src/main.c    ****   */
 105:Src/main.c    **** int main(void)
 106:Src/main.c    **** {
 107:Src/main.c    ****   /* USER CODE BEGIN 1 */
 108:Src/main.c    **** 
ARM GAS  /var/folders/68/n33lqcg953z5y1x0pvkj58xc0000gn/T//ccEgjW3d.s 			page 4


 109:Src/main.c    ****   /* USER CODE END 1 */
 110:Src/main.c    **** 
 111:Src/main.c    ****   /* MCU Configuration----------------------------------------------------------*/
 112:Src/main.c    **** 
 113:Src/main.c    ****   /* Reset of all peripherals, Initializes the Flash interface and the Systick. */
 114:Src/main.c    ****   HAL_Init();
 115:Src/main.c    **** 
 116:Src/main.c    ****   /* USER CODE BEGIN Init */
 117:Src/main.c    **** 
 118:Src/main.c    ****   /* USER CODE END Init */
 119:Src/main.c    **** 
 120:Src/main.c    ****   /* Configure the system clock */
 121:Src/main.c    ****   SystemClock_Config();
 122:Src/main.c    **** 
 123:Src/main.c    ****   /* USER CODE BEGIN SysInit */
 124:Src/main.c    **** 
 125:Src/main.c    ****   /* USER CODE END SysInit */
 126:Src/main.c    **** 
 127:Src/main.c    ****   /* Initialize all configured peripherals */
 128:Src/main.c    ****   MX_GPIO_Init();
 129:Src/main.c    ****   MX_DMA_Init();
 130:Src/main.c    ****   MX_TIM3_Init();
 131:Src/main.c    ****   MX_TIM1_Init();
 132:Src/main.c    ****   MX_TIM2_Init();
 133:Src/main.c    ****   MX_USART6_UART_Init();
 134:Src/main.c    ****   MX_ADC1_Init();
 135:Src/main.c    ****   MX_I2C1_Init();
 136:Src/main.c    ****   MX_TIM4_Init();
 137:Src/main.c    ****   MX_TIM9_Init();
 138:Src/main.c    ****   MX_TIM5_Init();
 139:Src/main.c    ****   /* USER CODE BEGIN 2 */
 140:Src/main.c    **** 
 141:Src/main.c    ****     /* Initialize peripherals */
 142:Src/main.c    ****     /* 
 143:Src/main.c    ****      * Claw jaw: TIM3 CH1
 144:Src/main.c    ****      * Claw arm: TIM3 CH2
 145:Src/main.c    ****      * Basket: TIM3 CH3
 146:Src/main.c    ****      * left forward: TIM1 CH1
 147:Src/main.c    ****      * left backward: TIM1 CH2
 148:Src/main.c    ****      * right forward: TIM1 CH3
 149:Src/main.c    ****      * right backward: TIM1 CH4
 150:Src/main.c    ****      * left encoder: TIM4
 151:Src/main.c    ****      * right encoderL TIM5
 152:Src/main.c    ****      * spare clocks: TIM2, TIM9
 153:Src/main.c    ****      */
 154:Src/main.c    **** 
 155:Src/main.c    ****     HAL_TIM_Encoder_Start(&htim4, TIM_CHANNEL_ALL);
 156:Src/main.c    ****     HAL_TIM_Encoder_Start(&htim5, TIM_CHANNEL_ALL);
 157:Src/main.c    ****     HAL_TIM_PWM_Start(&htim1, TIM_CHANNEL_1);
 158:Src/main.c    ****     HAL_TIM_PWM_Start(&htim1, TIM_CHANNEL_2);
 159:Src/main.c    ****     HAL_TIM_PWM_Start(&htim1, TIM_CHANNEL_3);
 160:Src/main.c    ****     HAL_TIM_PWM_Start(&htim1, TIM_CHANNEL_4);
 161:Src/main.c    ****     HAL_TIM_PWM_Start(&htim3, TIM_CHANNEL_1);
 162:Src/main.c    ****     HAL_TIM_PWM_Start(&htim3, TIM_CHANNEL_2);
 163:Src/main.c    ****     HAL_TIM_PWM_Start(&htim3, TIM_CHANNEL_3);
 164:Src/main.c    **** 
 165:Src/main.c    ****     /* Initialize other stuffs */
ARM GAS  /var/folders/68/n33lqcg953z5y1x0pvkj58xc0000gn/T//ccEgjW3d.s 			page 5


 166:Src/main.c    ****     ssd1306_Init();
 167:Src/main.c    ****     print("Starting", 0);
 168:Src/main.c    ****     //claw_init(&htim3);
 169:Src/main.c    ****     ///basket_init(&htim3);
 170:Src/main.c    **** 
 171:Src/main.c    ****     PID_t enc_pid = pid_Init(1,0,0,1,1);
 172:Src/main.c    ****     
 173:Src/main.c    ****     set_motor_speed(TIM_CHANNEL_1, LEFT_SPEED);
 174:Src/main.c    ****     set_motor_speed(TIM_CHANNEL_3, RIGHT_SPEED);
 175:Src/main.c    **** 
 176:Src/main.c    ****     /* Initially disabled IR, PI and Claw INT*/
 177:Src/main.c    ****     HAL_NVIC_DisableIRQ(EXTI0_IRQn);
 178:Src/main.c    ****     HAL_NVIC_DisableIRQ(EXTI1_IRQn);
 179:Src/main.c    ****     HAL_NVIC_DisableIRQ(EXTI4_IRQn);
 180:Src/main.c    ****   /* USER CODE END 2 */
 181:Src/main.c    **** 
 182:Src/main.c    ****   /* Infinite loop */
 183:Src/main.c    ****   /* USER CODE BEGIN WHILE */
 184:Src/main.c    ****     while (1)
 185:Src/main.c    ****     {
 186:Src/main.c    ****         /*
 187:Src/main.c    ****          * Square Edge
 188:Src/main.c    ****         encoder_pid(&enc_pid);
 189:Src/main.c    ****         if(EDGE_LEFT_STATE == FLAGGED || EDGE_RIGHT_STATE == FLAGGED){
 190:Src/main.c    ****             if(EDGE_LEFT_STATE== FLAGGED){
 191:Src/main.c    ****                 set_motor_speed(TIM_CHANNEL_1, 0);
 192:Src/main.c    ****             }if(EDGE_RIGHT_STATE == FLAGGED){
 193:Src/main.c    ****                 set_motor_speed(TIM_CHANNEL_3, 0);
 194:Src/main.c    ****             }
 195:Src/main.c    ****         
 196:Src/main.c    ****         }else if(EDGE_LEFT_STATE == FLAGGED && EDGE_RIGHT_STATE == FLAGGED){
 197:Src/main.c    ****             set_motor_speed(TIM_CHANNEL_2, 500);
 198:Src/main.c    ****             set_motor_speed(TIM_CHANNEL_4, 500);
 199:Src/main.c    ****             uint32_t t = HAL_GetTick();
 200:Src/main.c    ****             while (HAL_GetTick() - t < 500){
 201:Src/main.c    ****                 TIM4->CNT=30000;
 202:Src/main.c    ****                 TIM5->CNT=30000;
 203:Src/main.c    ****                 encoder_pid(&enc_pid);
 204:Src/main.c    ****                 HAL_Delay(10);
 205:Src/main.c    ****             }
 206:Src/main.c    ****             turn(-150);
 207:Src/main.c    ****         }
 208:Src/main.c    ****         */
 209:Src/main.c    **** 
 210:Src/main.c    **** 
 211:Src/main.c    ****         /*
 212:Src/main.c    ****          * Servo Stuff
 213:Src/main.c    ****          */
 214:Src/main.c    **** 
 215:Src/main.c    **** 
 216:Src/main.c    ****         /*
 217:Src/main.c    ****          * Drive Straight
 218:Src/main.c    ****          *
 219:Src/main.c    ****                 encoder_pid(&enc_pid);
 220:Src/main.c    ****                 HAL_Delay(10);
 221:Src/main.c    ****          */
 222:Src/main.c    **** 
ARM GAS  /var/folders/68/n33lqcg953z5y1x0pvkj58xc0000gn/T//ccEgjW3d.s 			page 6


 223:Src/main.c    ****         /*
 224:Src/main.c    ****          * Pi Turning
 225:Src/main.c    ****          */
 226:Src/main.c    ****         /*
 227:Src/main.c    ****          if (PI_INT_STATE == FLAGGED)
 228:Src/main.c    ****          {
 229:Src/main.c    ****          print("in pi int", 0);
 230:Src/main.c    ****          turn();
 231:Src/main.c    ****          
 232:Src/main.c    ****          set_motor_speed(TIM_CHANNEL_1, LEFT_SPEED);
 233:Src/main.c    ****          set_motor_speed(TIM_CHANNEL_3, RIGHT_SPEED);
 234:Src/main.c    ****          int start = HAL_GetTick();
 235:Src/main.c    ****          while (HAL_GetTick() - start < 4000)
 236:Src/main.c    ****          {
 237:Src/main.c    ****          // encoder_dist_pid(&left_pid);
 238:Src/main.c    ****          if (CLAW_INT_STATE == FLAGGED)
 239:Src/main.c    ****          {
 240:Src/main.c    ****          HAL_Delay(200);
 241:Src/main.c    ****          set_motor_speed(TIM_CHANNEL_1, 0);
 242:Src/main.c    ****          set_motor_speed(TIM_CHANNEL_3, 0);
 243:Src/main.c    ****          actuatengo(&htim2, TIM_CHANNEL_2, TIM_CHANNEL_3);
 244:Src/main.c    ****          CLAW_INT_STATE = NOT_FLAGGED;
 245:Src/main.c    ****          ++ewok_cnt;
 246:Src/main.c    ****          char msg[18] = "";
 247:Src/main.c    ****          sprintf(msg, "wok_cnt: %d", ewok_cnt);
 248:Src/main.c    ****          print(msg, 0);
 249:Src/main.c    ****          if (ewok_cnt == 1)
 250:Src/main.c    ****          {
 251:Src/main.c    ****          turn_deg(-120);
 252:Src/main.c    ****          arm_up_to_deg(&htim2, 80);
 253:Src/main.c    ****          set_motor_speed(TIM_CHANNEL_1, LEFT_SPEED);
 254:Src/main.c    ****          set_motor_speed(TIM_CHANNEL_3, RIGHT_SPEED);
 255:Src/main.c    ****          HAL_Delay(3000);
 256:Src/main.c    ****          CLAW_INT_STATE = NOT_FLAGGED;
 257:Src/main.c    ****          }
 258:Src/main.c    ****          break;
 259:Src/main.c    ****          }
 260:Src/main.c    ****          }
 261:Src/main.c    ****          // char pic_plz = "1";
 262:Src/main.c    ****          // HAL_UART_Transmit(&huart2, pic_plz, sizeof(pic_plz), 10000);
 263:Src/main.c    ****          PI_INT_STATE = NOT_FLAGGED;
 264:Src/main.c    ****          set_motor_speed(TIM_CHANNEL_1, 0);
 265:Src/main.c    ****          set_motor_speed(TIM_CHANNEL_3, 0);
 266:Src/main.c    ****          }
 267:Src/main.c    ****          */
 268:Src/main.c    **** 
 269:Src/main.c    ****         /*
 270:Src/main.c    ****          * EDGE and Object detection
 271:Src/main.c    ****          *
 272:Src/main.c    ****          if(EDGE_RIGHT_STATE == FLAGGED){
 273:Src/main.c    ****          print("ER",0);
 274:Src/main.c    ****          EDGE_RIGHT_STATE = NOT_FLAGGED;
 275:Src/main.c    ****          }
 276:Src/main.c    ****          if(TAPE_RIGHT_STATE == FLAGGED){
 277:Src/main.c    ****          print("TR",0);
 278:Src/main.c    ****          TAPE_RIGHT_STATE = NOT_FLAGGED;
 279:Src/main.c    ****          }
ARM GAS  /var/folders/68/n33lqcg953z5y1x0pvkj58xc0000gn/T//ccEgjW3d.s 			page 7


 280:Src/main.c    ****          if(EDGE_LEFT_STATE == FLAGGED){
 281:Src/main.c    ****          print("EL",0);
 282:Src/main.c    ****          EDGE_LEFT_STATE = NOT_FLAGGED;
 283:Src/main.c    ****          }
 284:Src/main.c    **** 
 285:Src/main.c    ****          if(TAPE_LEFT_STATE == FLAGGED){
 286:Src/main.c    ****          print("TL",0);
 287:Src/main.c    ****          TAPE_LEFT_STATE = NOT_FLAGGED;
 288:Src/main.c    ****          }
 289:Src/main.c    ****          */
 290:Src/main.c    **** 
 291:Src/main.c    ****         /*
 292:Src/main.c    ****          * IR DETECTION
 293:Src/main.c    ****          *
 294:Src/main.c    ****          if (IR_INT_STATE == FLAGGED)
 295:Src/main.c    ****          {
 296:Src/main.c    ****          alarm_detect();
 297:Src/main.c    ****         //drive past sensor, enough so as to not trigger interrupt again
 298:Src/main.c    ****         HAL_Delay(2000);
 299:Src/main.c    ****         }*/
 300:Src/main.c    **** 
 301:Src/main.c    ****   /* USER CODE END WHILE */
 302:Src/main.c    **** 
 303:Src/main.c    ****   /* USER CODE BEGIN 3 */
 304:Src/main.c    ****     }
 305:Src/main.c    ****   /* USER CODE END 3 */
 306:Src/main.c    **** 
 307:Src/main.c    **** }
 308:Src/main.c    **** 
 309:Src/main.c    **** /**
 310:Src/main.c    ****   * @brief System Clock Configuration
 311:Src/main.c    ****   * @retval None
 312:Src/main.c    ****   */
 313:Src/main.c    **** void SystemClock_Config(void)
 314:Src/main.c    **** {
 315:Src/main.c    **** 
 316:Src/main.c    ****   RCC_OscInitTypeDef RCC_OscInitStruct;
 317:Src/main.c    ****   RCC_ClkInitTypeDef RCC_ClkInitStruct;
 318:Src/main.c    **** 
 319:Src/main.c    ****     /**Configure the main internal regulator output voltage 
 320:Src/main.c    ****     */
 321:Src/main.c    ****   __HAL_RCC_PWR_CLK_ENABLE();
 322:Src/main.c    **** 
 323:Src/main.c    ****   __HAL_PWR_VOLTAGESCALING_CONFIG(PWR_REGULATOR_VOLTAGE_SCALE2);
 324:Src/main.c    **** 
 325:Src/main.c    ****     /**Initializes the CPU, AHB and APB busses clocks 
 326:Src/main.c    ****     */
 327:Src/main.c    ****   RCC_OscInitStruct.OscillatorType = RCC_OSCILLATORTYPE_HSI;
 328:Src/main.c    ****   RCC_OscInitStruct.HSIState = RCC_HSI_ON;
 329:Src/main.c    ****   RCC_OscInitStruct.HSICalibrationValue = 16;
 330:Src/main.c    ****   RCC_OscInitStruct.PLL.PLLState = RCC_PLL_ON;
 331:Src/main.c    ****   RCC_OscInitStruct.PLL.PLLSource = RCC_PLLSOURCE_HSI;
 332:Src/main.c    ****   RCC_OscInitStruct.PLL.PLLM = 8;
 333:Src/main.c    ****   RCC_OscInitStruct.PLL.PLLN = 72;
 334:Src/main.c    ****   RCC_OscInitStruct.PLL.PLLP = RCC_PLLP_DIV2;
 335:Src/main.c    ****   RCC_OscInitStruct.PLL.PLLQ = 4;
 336:Src/main.c    ****   if (HAL_RCC_OscConfig(&RCC_OscInitStruct) != HAL_OK)
ARM GAS  /var/folders/68/n33lqcg953z5y1x0pvkj58xc0000gn/T//ccEgjW3d.s 			page 8


 337:Src/main.c    ****   {
 338:Src/main.c    ****     _Error_Handler(__FILE__, __LINE__);
 339:Src/main.c    ****   }
 340:Src/main.c    **** 
 341:Src/main.c    ****     /**Initializes the CPU, AHB and APB busses clocks 
 342:Src/main.c    ****     */
 343:Src/main.c    ****   RCC_ClkInitStruct.ClockType = RCC_CLOCKTYPE_HCLK|RCC_CLOCKTYPE_SYSCLK
 344:Src/main.c    ****                               |RCC_CLOCKTYPE_PCLK1|RCC_CLOCKTYPE_PCLK2;
 345:Src/main.c    ****   RCC_ClkInitStruct.SYSCLKSource = RCC_SYSCLKSOURCE_PLLCLK;
 346:Src/main.c    ****   RCC_ClkInitStruct.AHBCLKDivider = RCC_SYSCLK_DIV1;
 347:Src/main.c    ****   RCC_ClkInitStruct.APB1CLKDivider = RCC_HCLK_DIV2;
 348:Src/main.c    ****   RCC_ClkInitStruct.APB2CLKDivider = RCC_HCLK_DIV1;
 349:Src/main.c    **** 
 350:Src/main.c    ****   if (HAL_RCC_ClockConfig(&RCC_ClkInitStruct, FLASH_LATENCY_2) != HAL_OK)
 351:Src/main.c    ****   {
 352:Src/main.c    ****     _Error_Handler(__FILE__, __LINE__);
 353:Src/main.c    ****   }
 354:Src/main.c    **** 
 355:Src/main.c    ****     /**Configure the Systick interrupt time 
 356:Src/main.c    ****     */
 357:Src/main.c    ****   HAL_SYSTICK_Config(HAL_RCC_GetHCLKFreq()/1000);
 358:Src/main.c    **** 
 359:Src/main.c    ****     /**Configure the Systick 
 360:Src/main.c    ****     */
 361:Src/main.c    ****   HAL_SYSTICK_CLKSourceConfig(SYSTICK_CLKSOURCE_HCLK);
 362:Src/main.c    **** 
 363:Src/main.c    ****   /* SysTick_IRQn interrupt configuration */
 364:Src/main.c    ****   HAL_NVIC_SetPriority(SysTick_IRQn, 0, 0);
 365:Src/main.c    **** }
 366:Src/main.c    **** 
 367:Src/main.c    **** /* USER CODE BEGIN 4 */
 368:Src/main.c    **** 
 369:Src/main.c    **** /*
 370:Src/main.c    ****  * Assume motors are not on.
 371:Src/main.c    ****  * Reads adc, turns left or right based on voltage. Left max= 0 , no turn = 1.65 V, right max = 3.3
 372:Src/main.c    ****  */
 373:Src/main.c    **** void turn()
 374:Src/main.c    **** {
 375:Src/main.c    ****     HAL_ADC_Start_DMA(&hadc1, dma_buffer, sizeof(dma_buffer) / sizeof(dma_buffer[0]));
 376:Src/main.c    ****     //TODO calculate time needed to fill first buffer
 377:Src/main.c    ****     HAL_Delay(50);
 378:Src/main.c    ****     float volts = calculate_heading(adc_values[5]);
 379:Src/main.c    ****     uint16_t counts = TURN_CONST * fabs(volts);
 380:Src/main.c    ****     TIM4->CNT = 0;
 381:Src/main.c    ****     TIM5->CNT = 0;
 382:Src/main.c    ****     
 383:Src/main.c    ****     char msg[18] = "";
 384:Src/main.c    ****     sprintf(msg, "cnts: %d", counts);
 385:Src/main.c    ****     print(msg, 0);
 386:Src/main.c    ****     int pre_dec = (int)(volts / 1);
 387:Src/main.c    ****     int post_dec = (int)((volts - pre_dec) * 1000);
 388:Src/main.c    ****     sprintf(msg, "vlts: %d.%d", pre_dec, post_dec);
 389:Src/main.c    ****     print(msg, 2);
 390:Src/main.c    ****     
 391:Src/main.c    ****     if (volts < -TURN_TOLERANCE)  // FIXME: Ben changed this
 392:Src/main.c    ****     {
 393:Src/main.c    ****         set_motor_speed(TIM_CHANNEL_1, 0);
ARM GAS  /var/folders/68/n33lqcg953z5y1x0pvkj58xc0000gn/T//ccEgjW3d.s 			page 9


 394:Src/main.c    ****         set_motor_speed(TIM_CHANNEL_3, RIGHT_SPEED);
 395:Src/main.c    ****         while (TIM5->CNT < counts)
 396:Src/main.c    ****         {
 397:Src/main.c    ****             sprintf(msg, "TIM5->CNT: %lu", TIM5->CNT);
 398:Src/main.c    ****             print(msg, 4);
 399:Src/main.c    ****         }
 400:Src/main.c    ****         sprintf(msg, "TIM5->CNT: %lu", TIM5->CNT);
 401:Src/main.c    ****         print(msg, 4);
 402:Src/main.c    ****         TIM5->CNT = 0;
 403:Src/main.c    ****     }
 404:Src/main.c    ****     else if (volts > TURN_TOLERANCE) // FIXME: Ben changed this
 405:Src/main.c    ****     {
 406:Src/main.c    ****         set_motor_speed(TIM_CHANNEL_1, LEFT_SPEED);
 407:Src/main.c    ****         set_motor_speed(TIM_CHANNEL_3, 0);
 408:Src/main.c    ****         while (TIM4->CNT < counts)
 409:Src/main.c    ****         {
 410:Src/main.c    ****             sprintf(msg, "TIM4->CNT: %lu", TIM4->CNT);
 411:Src/main.c    ****             print(msg, 4);
 412:Src/main.c    ****         }
 413:Src/main.c    ****         sprintf(msg, "TIM4->CNT: %lu", TIM4->CNT);
 414:Src/main.c    ****         print(msg, 4);
 415:Src/main.c    ****         TIM4->CNT = 0;
 416:Src/main.c    ****     }
 417:Src/main.c    ****     set_motor_speed(TIM_CHANNEL_1, 0);
 418:Src/main.c    ****     set_motor_speed(TIM_CHANNEL_3, 0);
 419:Src/main.c    ****     HAL_ADC_Stop_DMA(&hadc1);
 420:Src/main.c    **** }
 421:Src/main.c    **** 
 422:Src/main.c    **** /*
 423:Src/main.c    ****  * Assume motors are not on.
 424:Src/main.c    ****  * Reads adc, turns left or right based on voltage. Left max= 0 , no turn = 1.65 V, right max = 3.3
 425:Src/main.c    ****  */
 426:Src/main.c    **** void turn_deg(uint8_t deg)
 427:Src/main.c    **** {
 428:Src/main.c    ****     HAL_ADC_Start_DMA(&hadc1, dma_buffer, sizeof(dma_buffer) / sizeof(dma_buffer[0]));
 429:Src/main.c    ****         uint16_t counts = 50.0 / 90.0 * (deg-90) + 50;
 430:Src/main.c    ****         TIM4->CNT = 0;
 431:Src/main.c    ****         TIM5->CNT = 0;
 432:Src/main.c    ****         
 433:Src/main.c    ****         char msg[18] = "";
 434:Src/main.c    ****         
 435:Src/main.c    ****         if (deg > 0) // FIXME: Ben changed this
 436:Src/main.c    ****         {
 437:Src/main.c    ****             set_motor_speed(TIM_CHANNEL_1, 0);
 438:Src/main.c    ****             set_motor_speed(TIM_CHANNEL_3, 30000);
 439:Src/main.c    ****             while (TIM5->CNT < counts)
 440:Src/main.c    ****             {
 441:Src/main.c    ****                 sprintf(msg, "TIM5->CNT: %lu", TIM5->CNT);
 442:Src/main.c    ****                 print(msg, 4);
 443:Src/main.c    ****             }
 444:Src/main.c    ****             sprintf(msg, "TIM5->CNT: %lu", TIM5->CNT);
 445:Src/main.c    ****             print(msg, 4);
 446:Src/main.c    ****             TIM5->CNT = 0;
 447:Src/main.c    ****         }
 448:Src/main.c    ****         else if (deg < 0) // FIXME: Ben changed this
 449:Src/main.c    ****         {
 450:Src/main.c    ****             set_motor_speed(TIM_CHANNEL_1, 30000);
ARM GAS  /var/folders/68/n33lqcg953z5y1x0pvkj58xc0000gn/T//ccEgjW3d.s 			page 10


 451:Src/main.c    ****             set_motor_speed(TIM_CHANNEL_3, 0);
 452:Src/main.c    ****             while (TIM4->CNT < counts)
 453:Src/main.c    ****             {
 454:Src/main.c    ****                 sprintf(msg, "TIM4->CNT: %lu", TIM4->CNT);
 455:Src/main.c    ****                 print(msg, 4);
 456:Src/main.c    ****             }
 457:Src/main.c    ****             sprintf(msg, "TIM4->CNT: %lu", TIM4->CNT);
 458:Src/main.c    ****             print(msg, 4);
 459:Src/main.c    ****             TIM4->CNT = 0;
 460:Src/main.c    ****         }
 461:Src/main.c    ****         set_motor_speed(TIM_CHANNEL_1, 0);
 462:Src/main.c    ****         set_motor_speed(TIM_CHANNEL_3, 0);
 463:Src/main.c    ****         HAL_ADC_Stop_DMA(&hadc1);
 464:Src/main.c    **** }
 465:Src/main.c    **** 
 466:Src/main.c    **** 
 467:Src/main.c    **** /**
 468:Src/main.c    ****  * Resistor ladder: 8-bit, 0->3.3v.
 469:Src/main.c    ****  * ADC: 12-bit, 0->3.3V
 470:Src/main.c    ****  *
 471:Src/main.c    ****  * @param adc_val, value read from ADC.
 472:Src/main.c    ****  * @return heading as a percentage from -50 (left) to 50 (right).
 473:Src/main.c    ****  **/
 474:Src/main.c    **** float calculate_heading(uint32_t adc_val)
 475:Src/main.c    **** {
  67              		.loc 1 475 0
  68              		.cfi_startproc
  69              		@ args = 0, pretend = 0, frame = 0
  70              		@ frame_needed = 0, uses_anonymous_args = 0
  71              	.LVL3:
  72 0000 08B5     		push	{r3, lr}
  73              	.LCFI1:
  74              		.cfi_def_cfa_offset 8
  75              		.cfi_offset 3, -8
  76              		.cfi_offset 14, -4
 476:Src/main.c    ****     return adc_val / 4096.0 - 0.5;
  77              		.loc 1 476 0
  78 0002 FFF7FEFF 		bl	__aeabi_ui2d
  79              	.LVL4:
  80 0006 0022     		movs	r2, #0
  81 0008 054B     		ldr	r3, .L7
  82 000a FFF7FEFF 		bl	__aeabi_dmul
  83              	.LVL5:
  84 000e 0022     		movs	r2, #0
  85 0010 044B     		ldr	r3, .L7+4
  86 0012 FFF7FEFF 		bl	__aeabi_dsub
  87              	.LVL6:
  88 0016 FFF7FEFF 		bl	__aeabi_d2f
  89              	.LVL7:
 477:Src/main.c    **** }
  90              		.loc 1 477 0
  91 001a 00EE100A 		fmsr	s0, r0
  92 001e 08BD     		pop	{r3, pc}
  93              	.L8:
  94              		.align	2
  95              	.L7:
  96 0020 0000303F 		.word	1060110336
ARM GAS  /var/folders/68/n33lqcg953z5y1x0pvkj58xc0000gn/T//ccEgjW3d.s 			page 11


  97 0024 0000E03F 		.word	1071644672
  98              		.cfi_endproc
  99              	.LFE128:
 101              		.global	__aeabi_dcmplt
 102              		.global	__aeabi_dcmpgt
 103              		.section	.text.alarm_detect,"ax",%progbits
 104              		.align	2
 105              		.global	alarm_detect
 106              		.thumb
 107              		.thumb_func
 109              	alarm_detect:
 110              	.LFB129:
 478:Src/main.c    **** 
 479:Src/main.c    **** // Sampling frequency: 72e6/2/(495*3)
 480:Src/main.c    **** void alarm_detect()
 481:Src/main.c    **** {
 111              		.loc 1 481 0
 112              		.cfi_startproc
 113              		@ args = 0, pretend = 0, frame = 0
 114              		@ frame_needed = 0, uses_anonymous_args = 0
 115 0000 00B5     		push	{lr}
 116              	.LCFI2:
 117              		.cfi_def_cfa_offset 4
 118              		.cfi_offset 14, -4
 119 0002 83B0     		sub	sp, sp, #12
 120              	.LCFI3:
 121              		.cfi_def_cfa_offset 16
 482:Src/main.c    ****     HAL_ADC_Start_DMA(&hadc1, dma_buffer, sizeof(dma_buffer) / sizeof(dma_buffer[0]));
 122              		.loc 1 482 0
 123 0004 1C48     		ldr	r0, .L13
 124 0006 1D49     		ldr	r1, .L13+4
 125 0008 4FF40062 		mov	r2, #2048
 126 000c FFF7FEFF 		bl	HAL_ADC_Start_DMA
 127              	.LVL8:
 483:Src/main.c    ****     //TODO calculate time needed to fill first buffer
 484:Src/main.c    ****     HAL_Delay(500);
 128              		.loc 1 484 0
 129 0010 4FF4FA70 		mov	r0, #500
 130 0014 FFF7FEFF 		bl	HAL_Delay
 131              	.LVL9:
 132              	.L10:
 485:Src/main.c    ****     while(goertzel(adc_values, 24242, 1000, sizeof(dma_buffer) / sizeof(dma_buffer[0]), 0) < 100);
 133              		.loc 1 485 0 discriminator 1
 134 0018 0023     		movs	r3, #0
 135 001a 0093     		str	r3, [sp]
 136 001c 1848     		ldr	r0, .L13+8
 137 001e 45F6B261 		movw	r1, #24242
 138 0022 4FF47A72 		mov	r2, #1000
 139 0026 4FF40063 		mov	r3, #2048
 140 002a FFF7FEFF 		bl	goertzel
 141              	.LVL10:
 142 002e 51EC100B 		fmrrd	r0, r1, d0
 143 0032 0022     		movs	r2, #0
 144 0034 134B     		ldr	r3, .L13+12
 145 0036 FFF7FEFF 		bl	__aeabi_dcmplt
 146              	.LVL11:
 147 003a 0028     		cmp	r0, #0
ARM GAS  /var/folders/68/n33lqcg953z5y1x0pvkj58xc0000gn/T//ccEgjW3d.s 			page 12


 148 003c ECD1     		bne	.L10
 149              	.L11:
 486:Src/main.c    ****     while(goertzel(adc_values, 24242, 1000, sizeof(dma_buffer) / sizeof(dma_buffer[0]), 0) > 100);
 150              		.loc 1 486 0 discriminator 1
 151 003e 0023     		movs	r3, #0
 152 0040 0093     		str	r3, [sp]
 153 0042 0F48     		ldr	r0, .L13+8
 154 0044 45F6B261 		movw	r1, #24242
 155 0048 4FF47A72 		mov	r2, #1000
 156 004c 4FF40063 		mov	r3, #2048
 157 0050 FFF7FEFF 		bl	goertzel
 158              	.LVL12:
 159 0054 51EC100B 		fmrrd	r0, r1, d0
 160 0058 0022     		movs	r2, #0
 161 005a 0A4B     		ldr	r3, .L13+12
 162 005c FFF7FEFF 		bl	__aeabi_dcmpgt
 163              	.LVL13:
 164 0060 0028     		cmp	r0, #0
 165 0062 ECD1     		bne	.L11
 487:Src/main.c    ****     HAL_ADC_Stop_DMA(&hadc1);
 166              		.loc 1 487 0
 167 0064 0448     		ldr	r0, .L13
 168 0066 FFF7FEFF 		bl	HAL_ADC_Stop_DMA
 169              	.LVL14:
 488:Src/main.c    ****     IR_INT_STATE = NOT_FLAGGED;
 170              		.loc 1 488 0
 171 006a 0022     		movs	r2, #0
 172 006c 064B     		ldr	r3, .L13+16
 173 006e 1A70     		strb	r2, [r3]
 489:Src/main.c    **** }
 174              		.loc 1 489 0
 175 0070 03B0     		add	sp, sp, #12
 176              	.LCFI4:
 177              		.cfi_def_cfa_offset 4
 178              		@ sp needed
 179 0072 5DF804FB 		ldr	pc, [sp], #4
 180              	.L14:
 181 0076 00BF     		.align	2
 182              	.L13:
 183 0078 00000000 		.word	hadc1
 184 007c 00000000 		.word	dma_buffer
 185 0080 00000000 		.word	adc_values
 186 0084 00005940 		.word	1079574528
 187 0088 00000000 		.word	IR_INT_STATE
 188              		.cfi_endproc
 189              	.LFE129:
 191              		.section	.text.print,"ax",%progbits
 192              		.align	2
 193              		.global	print
 194              		.thumb
 195              		.thumb_func
 197              	print:
 198              	.LFB130:
 490:Src/main.c    **** 
 491:Src/main.c    **** 
 492:Src/main.c    **** /**
 493:Src/main.c    ****  * @brief prints string to row, rows from 0 - 6, resets screen when printing from row 0
ARM GAS  /var/folders/68/n33lqcg953z5y1x0pvkj58xc0000gn/T//ccEgjW3d.s 			page 13


 494:Src/main.c    ****  * @param msg, string to print
 495:Src/main.c    ****  * @param row, row to print msg to
 496:Src/main.c    ****  */
 497:Src/main.c    **** void print(char *msg, int row)
 498:Src/main.c    **** {
 199              		.loc 1 498 0
 200              		.cfi_startproc
 201              		@ args = 0, pretend = 0, frame = 0
 202              		@ frame_needed = 0, uses_anonymous_args = 0
 203              	.LVL15:
 204 0000 38B5     		push	{r3, r4, r5, lr}
 205              	.LCFI5:
 206              		.cfi_def_cfa_offset 16
 207              		.cfi_offset 3, -16
 208              		.cfi_offset 4, -12
 209              		.cfi_offset 5, -8
 210              		.cfi_offset 14, -4
 211 0002 0546     		mov	r5, r0
 499:Src/main.c    ****     if (row == 0)
 212              		.loc 1 499 0
 213 0004 0C46     		mov	r4, r1
 214 0006 11B9     		cbnz	r1, .L16
 500:Src/main.c    ****     {
 501:Src/main.c    ****         ssd1306_Fill(Black);
 215              		.loc 1 501 0
 216 0008 0020     		movs	r0, #0
 217              	.LVL16:
 218 000a FFF7FEFF 		bl	ssd1306_Fill
 219              	.LVL17:
 220              	.L16:
 502:Src/main.c    ****     }
 503:Src/main.c    ****     ssd1306_SetCursor(0, row * 10);
 221              		.loc 1 503 0
 222 000e 04EB8404 		add	r4, r4, r4, lsl #2
 223              	.LVL18:
 224 0012 6100     		lsls	r1, r4, #1
 225 0014 0020     		movs	r0, #0
 226 0016 01F0FE01 		and	r1, r1, #254
 227 001a FFF7FEFF 		bl	ssd1306_SetCursor
 228              	.LVL19:
 504:Src/main.c    ****     ssd1306_WriteString(msg, Font_7x10, White);
 229              		.loc 1 504 0
 230 001e 054B     		ldr	r3, .L18
 231 0020 2846     		mov	r0, r5
 232 0022 93E80600 		ldmia	r3, {r1, r2}
 233 0026 0123     		movs	r3, #1
 234 0028 FFF7FEFF 		bl	ssd1306_WriteString
 235              	.LVL20:
 505:Src/main.c    ****     ssd1306_UpdateScreen();
 236              		.loc 1 505 0
 237 002c FFF7FEFF 		bl	ssd1306_UpdateScreen
 238              	.LVL21:
 239 0030 38BD     		pop	{r3, r4, r5, pc}
 240              	.LVL22:
 241              	.L19:
 242 0032 00BF     		.align	2
 243              	.L18:
ARM GAS  /var/folders/68/n33lqcg953z5y1x0pvkj58xc0000gn/T//ccEgjW3d.s 			page 14


 244 0034 00000000 		.word	Font_7x10
 245              		.cfi_endproc
 246              	.LFE130:
 248              		.section	.text.menu,"ax",%progbits
 249              		.align	2
 250              		.global	menu
 251              		.thumb
 252              		.thumb_func
 254              	menu:
 255              	.LFB131:
 506:Src/main.c    **** }
 507:Src/main.c    **** 
 508:Src/main.c    **** PID_t menu()
 509:Src/main.c    **** {
 256              		.loc 1 509 0
 257              		.cfi_startproc
 258              		@ args = 0, pretend = 0, frame = 32
 259              		@ frame_needed = 0, uses_anonymous_args = 0
 260              	.LVL23:
 261 0000 30B5     		push	{r4, r5, lr}
 262              	.LCFI6:
 263              		.cfi_def_cfa_offset 12
 264              		.cfi_offset 4, -12
 265              		.cfi_offset 5, -8
 266              		.cfi_offset 14, -4
 267 0002 8BB0     		sub	sp, sp, #44
 268              	.LCFI7:
 269              		.cfi_def_cfa_offset 56
 270 0004 0546     		mov	r5, r0
 510:Src/main.c    ****     print("Starting", 0);
 271              		.loc 1 510 0
 272 0006 2548     		ldr	r0, .L26
 273              	.LVL24:
 274 0008 0021     		movs	r1, #0
 275 000a FFF7FEFF 		bl	print
 276              	.LVL25:
 511:Src/main.c    ****     char msg[20] = "";
 277              		.loc 1 511 0
 278 000e 0024     		movs	r4, #0
 279 0010 0594     		str	r4, [sp, #20]
 280 0012 0694     		str	r4, [sp, #24]
 281 0014 0794     		str	r4, [sp, #28]
 282 0016 0894     		str	r4, [sp, #32]
 283 0018 0994     		str	r4, [sp, #36]
 284              	.LVL26:
 512:Src/main.c    ****     int pid_select = 0;
 513:Src/main.c    ****     uint32_t values[2] = {0, 0};
 285              		.loc 1 513 0
 286 001a 0394     		str	r4, [sp, #12]
 287 001c 0494     		str	r4, [sp, #16]
 288              	.LVL27:
 289              	.L24:
 514:Src/main.c    ****     while (1)
 515:Src/main.c    ****     {
 516:Src/main.c    ****         if (HAL_GPIO_ReadPin(MENU_GPIO_Port, MENU_Pin) == 0)
 290              		.loc 1 516 0
 291 001e 2048     		ldr	r0, .L26+4
ARM GAS  /var/folders/68/n33lqcg953z5y1x0pvkj58xc0000gn/T//ccEgjW3d.s 			page 15


 292 0020 4FF40051 		mov	r1, #8192
 293 0024 FFF7FEFF 		bl	HAL_GPIO_ReadPin
 294              	.LVL28:
 295 0028 48BB     		cbnz	r0, .L21
 517:Src/main.c    ****         {
 518:Src/main.c    ****             sprintf(msg, "%lu", values[pid_select]);
 296              		.loc 1 518 0
 297 002a 05A8     		add	r0, sp, #20
 298 002c 1D49     		ldr	r1, .L26+8
 299 002e 0AAB     		add	r3, sp, #40
 300 0030 03EB8403 		add	r3, r3, r4, lsl #2
 301 0034 53F81C2C 		ldr	r2, [r3, #-28]
 302 0038 FFF7FEFF 		bl	sprintf
 303              	.LVL29:
 519:Src/main.c    ****             print(msg, 0);
 304              		.loc 1 519 0
 305 003c 05A8     		add	r0, sp, #20
 306 003e 0021     		movs	r1, #0
 307 0040 FFF7FEFF 		bl	print
 308              	.LVL30:
 520:Src/main.c    ****             while (HAL_GPIO_ReadPin(MENU_GPIO_Port, MENU_Pin) == 0)
 309              		.loc 1 520 0
 310 0044 13E0     		b	.L22
 311              	.L23:
 521:Src/main.c    ****             {
 522:Src/main.c    ****                 values[pid_select]++;
 312              		.loc 1 522 0
 313 0046 0AAB     		add	r3, sp, #40
 314 0048 03EB8403 		add	r3, r3, r4, lsl #2
 315 004c 53F81C2C 		ldr	r2, [r3, #-28]
 316 0050 0132     		adds	r2, r2, #1
 317 0052 43F81C2C 		str	r2, [r3, #-28]
 523:Src/main.c    ****                 sprintf(msg, "%lu", values[pid_select]);
 318              		.loc 1 523 0
 319 0056 05A8     		add	r0, sp, #20
 320 0058 1249     		ldr	r1, .L26+8
 321 005a FFF7FEFF 		bl	sprintf
 322              	.LVL31:
 524:Src/main.c    ****                 print(msg, 0);
 323              		.loc 1 524 0
 324 005e 05A8     		add	r0, sp, #20
 325 0060 0021     		movs	r1, #0
 326 0062 FFF7FEFF 		bl	print
 327              	.LVL32:
 525:Src/main.c    ****                 HAL_Delay(500);
 328              		.loc 1 525 0
 329 0066 4FF4FA70 		mov	r0, #500
 330 006a FFF7FEFF 		bl	HAL_Delay
 331              	.LVL33:
 332              	.L22:
 520:Src/main.c    ****             {
 333              		.loc 1 520 0
 334 006e 0C48     		ldr	r0, .L26+4
 335 0070 4FF40051 		mov	r1, #8192
 336 0074 FFF7FEFF 		bl	HAL_GPIO_ReadPin
 337              	.LVL34:
 338 0078 0028     		cmp	r0, #0
ARM GAS  /var/folders/68/n33lqcg953z5y1x0pvkj58xc0000gn/T//ccEgjW3d.s 			page 16


 339 007a E4D0     		beq	.L23
 526:Src/main.c    ****             }
 527:Src/main.c    ****             ++pid_select;
 340              		.loc 1 527 0
 341 007c 0134     		adds	r4, r4, #1
 342              	.LVL35:
 343              	.L21:
 528:Src/main.c    ****         }
 529:Src/main.c    ****         if (pid_select == 2)
 344              		.loc 1 529 0
 345 007e 022C     		cmp	r4, #2
 346 0080 CDD1     		bne	.L24
 530:Src/main.c    ****             break;
 531:Src/main.c    ****     }
 532:Src/main.c    ****     return pid_Init(values[0], values[1], 1, 1, 1);
 347              		.loc 1 532 0
 348 0082 BDF80C10 		ldrh	r1, [sp, #12]
 349 0086 BDF81020 		ldrh	r2, [sp, #16]
 350 008a 0123     		movs	r3, #1
 351 008c 0093     		str	r3, [sp]
 352 008e 0193     		str	r3, [sp, #4]
 353 0090 2846     		mov	r0, r5
 354 0092 FFF7FEFF 		bl	pid_Init
 355              	.LVL36:
 533:Src/main.c    **** }
 356              		.loc 1 533 0
 357 0096 2846     		mov	r0, r5
 358 0098 0BB0     		add	sp, sp, #44
 359              	.LCFI8:
 360              		.cfi_def_cfa_offset 12
 361              		@ sp needed
 362 009a 30BD     		pop	{r4, r5, pc}
 363              	.LVL37:
 364              	.L27:
 365              		.align	2
 366              	.L26:
 367 009c 00000000 		.word	.LC0
 368 00a0 00080240 		.word	1073874944
 369 00a4 0C000000 		.word	.LC1
 370              		.cfi_endproc
 371              	.LFE131:
 373              		.section	.text.set_motor_speed,"ax",%progbits
 374              		.align	2
 375              		.global	set_motor_speed
 376              		.thumb
 377              		.thumb_func
 379              	set_motor_speed:
 380              	.LFB132:
 534:Src/main.c    **** 
 535:Src/main.c    **** 
 536:Src/main.c    **** void set_motor_speed(uint32_t channel, uint32_t speed)
 537:Src/main.c    **** {
 381              		.loc 1 537 0
 382              		.cfi_startproc
 383              		@ args = 0, pretend = 0, frame = 0
 384              		@ frame_needed = 0, uses_anonymous_args = 0
 385              		@ link register save eliminated.
ARM GAS  /var/folders/68/n33lqcg953z5y1x0pvkj58xc0000gn/T//ccEgjW3d.s 			page 17


 386              	.LVL38:
 538:Src/main.c    ****     if (channel == TIM_CHANNEL_1)
 387              		.loc 1 538 0
 388 0000 0346     		mov	r3, r0
 389 0002 18B9     		cbnz	r0, .L29
 539:Src/main.c    ****     {
 540:Src/main.c    ****         __HAL_TIM_SET_COMPARE(&htim1, TIM_CHANNEL_2, 0);
 390              		.loc 1 540 0
 391 0004 114A     		ldr	r2, .L33
 392 0006 1268     		ldr	r2, [r2]
 393 0008 9063     		str	r0, [r2, #56]
 394 000a 13E0     		b	.L30
 395              	.L29:
 541:Src/main.c    ****     }
 542:Src/main.c    ****     else if (channel == TIM_CHANNEL_2)
 396              		.loc 1 542 0
 397 000c 0428     		cmp	r0, #4
 398 000e 04D1     		bne	.L31
 543:Src/main.c    ****     {
 544:Src/main.c    ****         __HAL_TIM_SET_COMPARE(&htim1, TIM_CHANNEL_1, 0);
 399              		.loc 1 544 0
 400 0010 0E4A     		ldr	r2, .L33
 401 0012 1268     		ldr	r2, [r2]
 402 0014 0020     		movs	r0, #0
 403              	.LVL39:
 404 0016 5063     		str	r0, [r2, #52]
 405 0018 0CE0     		b	.L30
 406              	.LVL40:
 407              	.L31:
 545:Src/main.c    ****     }
 546:Src/main.c    ****     else if (channel == TIM_CHANNEL_3)
 408              		.loc 1 546 0
 409 001a 0828     		cmp	r0, #8
 410 001c 04D1     		bne	.L32
 547:Src/main.c    ****     {
 548:Src/main.c    ****         __HAL_TIM_SET_COMPARE(&htim1, TIM_CHANNEL_4, 0);
 411              		.loc 1 548 0
 412 001e 0B4A     		ldr	r2, .L33
 413 0020 1268     		ldr	r2, [r2]
 414 0022 0020     		movs	r0, #0
 415              	.LVL41:
 416 0024 1064     		str	r0, [r2, #64]
 417 0026 05E0     		b	.L30
 418              	.LVL42:
 419              	.L32:
 549:Src/main.c    ****     }
 550:Src/main.c    ****     else if (channel == TIM_CHANNEL_4)
 420              		.loc 1 550 0
 421 0028 0C28     		cmp	r0, #12
 422 002a 03D1     		bne	.L30
 551:Src/main.c    ****     {
 552:Src/main.c    ****         __HAL_TIM_SET_COMPARE(&htim1, TIM_CHANNEL_3, 0);
 423              		.loc 1 552 0
 424 002c 074A     		ldr	r2, .L33
 425 002e 1268     		ldr	r2, [r2]
 426 0030 0020     		movs	r0, #0
 427              	.LVL43:
ARM GAS  /var/folders/68/n33lqcg953z5y1x0pvkj58xc0000gn/T//ccEgjW3d.s 			page 18


 428 0032 D063     		str	r0, [r2, #60]
 429              	.L30:
 553:Src/main.c    ****     }
 554:Src/main.c    ****     __HAL_TIM_SET_COMPARE(&htim1, channel, speed>1000?1000:speed);
 430              		.loc 1 554 0
 431 0034 054A     		ldr	r2, .L33
 432 0036 1268     		ldr	r2, [r2]
 433 0038 3432     		adds	r2, r2, #52
 434 003a 9B08     		lsrs	r3, r3, #2
 435              	.LVL44:
 436 003c B1F57A7F 		cmp	r1, #1000
 437 0040 28BF     		it	cs
 438 0042 4FF47A71 		movcs	r1, #1000
 439              	.LVL45:
 440 0046 42F82310 		str	r1, [r2, r3, lsl #2]
 441 004a 7047     		bx	lr
 442              	.L34:
 443              		.align	2
 444              	.L33:
 445 004c 00000000 		.word	htim1
 446              		.cfi_endproc
 447              	.LFE132:
 449              		.global	__aeabi_f2d
 450              		.global	__aeabi_d2uiz
 451              		.section	.text.turn,"ax",%progbits
 452              		.align	2
 453              		.global	turn
 454              		.thumb
 455              		.thumb_func
 457              	turn:
 458              	.LFB126:
 374:Src/main.c    ****     HAL_ADC_Start_DMA(&hadc1, dma_buffer, sizeof(dma_buffer) / sizeof(dma_buffer[0]));
 459              		.loc 1 374 0
 460              		.cfi_startproc
 461              		@ args = 0, pretend = 0, frame = 24
 462              		@ frame_needed = 0, uses_anonymous_args = 0
 463 0000 F0B5     		push	{r4, r5, r6, r7, lr}
 464              	.LCFI9:
 465              		.cfi_def_cfa_offset 20
 466              		.cfi_offset 4, -20
 467              		.cfi_offset 5, -16
 468              		.cfi_offset 6, -12
 469              		.cfi_offset 7, -8
 470              		.cfi_offset 14, -4
 471 0002 2DED028B 		fstmfdd	sp!, {d8}
 472              	.LCFI10:
 473              		.cfi_def_cfa_offset 28
 474              		.cfi_offset 80, -28
 475              		.cfi_offset 81, -24
 476 0006 87B0     		sub	sp, sp, #28
 477              	.LCFI11:
 478              		.cfi_def_cfa_offset 56
 375:Src/main.c    ****     //TODO calculate time needed to fill first buffer
 479              		.loc 1 375 0
 480 0008 5F48     		ldr	r0, .L48+16
 481 000a 6049     		ldr	r1, .L48+20
 482 000c 4FF40062 		mov	r2, #2048
ARM GAS  /var/folders/68/n33lqcg953z5y1x0pvkj58xc0000gn/T//ccEgjW3d.s 			page 19


 483 0010 FFF7FEFF 		bl	HAL_ADC_Start_DMA
 484              	.LVL46:
 377:Src/main.c    ****     float volts = calculate_heading(adc_values[5]);
 485              		.loc 1 377 0
 486 0014 3220     		movs	r0, #50
 487 0016 FFF7FEFF 		bl	HAL_Delay
 488              	.LVL47:
 378:Src/main.c    ****     uint16_t counts = TURN_CONST * fabs(volts);
 489              		.loc 1 378 0
 490 001a 5D4B     		ldr	r3, .L48+24
 491 001c 5869     		ldr	r0, [r3, #20]
 492 001e FFF7FEFF 		bl	calculate_heading
 493              	.LVL48:
 494 0022 B0EE408A 		fcpys	s16, s0
 495              	.LVL49:
 379:Src/main.c    ****     TIM4->CNT = 0;
 496              		.loc 1 379 0
 497 0026 F0EEC07A 		fabss	s15, s0
 498 002a 17EE900A 		fmrs	r0, s15
 499 002e FFF7FEFF 		bl	__aeabi_f2d
 500              	.LVL50:
 501 0032 0022     		movs	r2, #0
 502 0034 574B     		ldr	r3, .L48+28
 503 0036 FFF7FEFF 		bl	__aeabi_dmul
 504              	.LVL51:
 505 003a FFF7FEFF 		bl	__aeabi_d2uiz
 506              	.LVL52:
 507 003e 85B2     		uxth	r5, r0
 508              	.LVL53:
 380:Src/main.c    ****     TIM5->CNT = 0;
 509              		.loc 1 380 0
 510 0040 0024     		movs	r4, #0
 511 0042 554B     		ldr	r3, .L48+32
 512 0044 5C62     		str	r4, [r3, #36]
 381:Src/main.c    ****     
 513              		.loc 1 381 0
 514 0046 03F58063 		add	r3, r3, #1024
 515 004a 5C62     		str	r4, [r3, #36]
 383:Src/main.c    ****     sprintf(msg, "cnts: %d", counts);
 516              		.loc 1 383 0
 517 004c 0194     		str	r4, [sp, #4]
 518 004e 0294     		str	r4, [sp, #8]
 519 0050 0394     		str	r4, [sp, #12]
 520 0052 0494     		str	r4, [sp, #16]
 521 0054 ADF81440 		strh	r4, [sp, #20]	@ movhi
 384:Src/main.c    ****     print(msg, 0);
 522              		.loc 1 384 0
 523 0058 01A8     		add	r0, sp, #4
 524 005a 5049     		ldr	r1, .L48+36
 525 005c 2A46     		mov	r2, r5
 526 005e FFF7FEFF 		bl	sprintf
 527              	.LVL54:
 385:Src/main.c    ****     int pre_dec = (int)(volts / 1);
 528              		.loc 1 385 0
 529 0062 01A8     		add	r0, sp, #4
 530 0064 2146     		mov	r1, r4
 531 0066 FFF7FEFF 		bl	print
ARM GAS  /var/folders/68/n33lqcg953z5y1x0pvkj58xc0000gn/T//ccEgjW3d.s 			page 20


 532              	.LVL55:
 386:Src/main.c    ****     int post_dec = (int)((volts - pre_dec) * 1000);
 533              		.loc 1 386 0
 534 006a BDEEC87A 		ftosizs	s14, s16
 535              	.LVL56:
 387:Src/main.c    ****     sprintf(msg, "vlts: %d.%d", pre_dec, post_dec);
 536              		.loc 1 387 0
 537 006e F8EEC77A 		fsitos	s15, s14
 538 0072 78EE677A 		fsubs	s15, s16, s15
 539 0076 DFED4A6A 		flds	s13, .L48+40
 540 007a 67EEA67A 		fmuls	s15, s15, s13
 541              	.LVL57:
 388:Src/main.c    ****     print(msg, 2);
 542              		.loc 1 388 0
 543 007e 01A8     		add	r0, sp, #4
 544 0080 4849     		ldr	r1, .L48+44
 545 0082 17EE102A 		fmrs	r2, s14	@ int
 546 0086 FDEEE77A 		ftosizs	s15, s15
 547              	.LVL58:
 548 008a 17EE903A 		fmrs	r3, s15	@ int
 549 008e FFF7FEFF 		bl	sprintf
 550              	.LVL59:
 389:Src/main.c    ****     
 551              		.loc 1 389 0
 552 0092 01A8     		add	r0, sp, #4
 553 0094 0221     		movs	r1, #2
 554 0096 FFF7FEFF 		bl	print
 555              	.LVL60:
 391:Src/main.c    ****     {
 556              		.loc 1 391 0
 557 009a 18EE100A 		fmrs	r0, s16
 558 009e FFF7FEFF 		bl	__aeabi_f2d
 559              	.LVL61:
 560 00a2 0646     		mov	r6, r0
 561 00a4 0F46     		mov	r7, r1
 562 00a6 34A3     		adr	r3, .L48
 563 00a8 D3E90023 		ldrd	r2, [r3]
 564 00ac FFF7FEFF 		bl	__aeabi_dcmplt
 565              	.LVL62:
 566 00b0 20B3     		cbz	r0, .L46
 393:Src/main.c    ****         set_motor_speed(TIM_CHANNEL_3, RIGHT_SPEED);
 567              		.loc 1 393 0
 568 00b2 2046     		mov	r0, r4
 569 00b4 2146     		mov	r1, r4
 570 00b6 FFF7FEFF 		bl	set_motor_speed
 571              	.LVL63:
 394:Src/main.c    ****         while (TIM5->CNT < counts)
 572              		.loc 1 394 0
 573 00ba 0820     		movs	r0, #8
 574 00bc 3A4B     		ldr	r3, .L48+48
 575 00be 1988     		ldrh	r1, [r3]
 576 00c0 FFF7FEFF 		bl	set_motor_speed
 577              	.LVL64:
 395:Src/main.c    ****         {
 578              		.loc 1 395 0
 579 00c4 09E0     		b	.L38
 580              	.L39:
ARM GAS  /var/folders/68/n33lqcg953z5y1x0pvkj58xc0000gn/T//ccEgjW3d.s 			page 21


 397:Src/main.c    ****             print(msg, 4);
 581              		.loc 1 397 0
 582 00c6 394B     		ldr	r3, .L48+52
 583 00c8 5A6A     		ldr	r2, [r3, #36]
 584 00ca 01A8     		add	r0, sp, #4
 585 00cc 3849     		ldr	r1, .L48+56
 586 00ce FFF7FEFF 		bl	sprintf
 587              	.LVL65:
 398:Src/main.c    ****         }
 588              		.loc 1 398 0
 589 00d2 01A8     		add	r0, sp, #4
 590 00d4 0421     		movs	r1, #4
 591 00d6 FFF7FEFF 		bl	print
 592              	.LVL66:
 593              	.L38:
 395:Src/main.c    ****         {
 594              		.loc 1 395 0
 595 00da 344B     		ldr	r3, .L48+52
 596 00dc 5B6A     		ldr	r3, [r3, #36]
 597 00de AB42     		cmp	r3, r5
 598 00e0 F1D3     		bcc	.L39
 400:Src/main.c    ****         print(msg, 4);
 599              		.loc 1 400 0
 600 00e2 324C     		ldr	r4, .L48+52
 601 00e4 626A     		ldr	r2, [r4, #36]
 602 00e6 01A8     		add	r0, sp, #4
 603 00e8 3149     		ldr	r1, .L48+56
 604 00ea FFF7FEFF 		bl	sprintf
 605              	.LVL67:
 401:Src/main.c    ****         TIM5->CNT = 0;
 606              		.loc 1 401 0
 607 00ee 01A8     		add	r0, sp, #4
 608 00f0 0421     		movs	r1, #4
 609 00f2 FFF7FEFF 		bl	print
 610              	.LVL68:
 402:Src/main.c    ****     }
 611              		.loc 1 402 0
 612 00f6 0023     		movs	r3, #0
 613 00f8 6362     		str	r3, [r4, #36]
 614 00fa 2BE0     		b	.L40
 615              	.L46:
 404:Src/main.c    ****     {
 616              		.loc 1 404 0
 617 00fc 3046     		mov	r0, r6
 618 00fe 3946     		mov	r1, r7
 619 0100 1FA3     		adr	r3, .L48+8
 620 0102 D3E90023 		ldrd	r2, [r3]
 621 0106 FFF7FEFF 		bl	__aeabi_dcmpgt
 622              	.LVL69:
 623 010a 18B3     		cbz	r0, .L40
 406:Src/main.c    ****         set_motor_speed(TIM_CHANNEL_3, 0);
 624              		.loc 1 406 0
 625 010c 0020     		movs	r0, #0
 626 010e 294B     		ldr	r3, .L48+60
 627 0110 1988     		ldrh	r1, [r3]
 628 0112 FFF7FEFF 		bl	set_motor_speed
 629              	.LVL70:
ARM GAS  /var/folders/68/n33lqcg953z5y1x0pvkj58xc0000gn/T//ccEgjW3d.s 			page 22


 407:Src/main.c    ****         while (TIM4->CNT < counts)
 630              		.loc 1 407 0
 631 0116 0820     		movs	r0, #8
 632 0118 0021     		movs	r1, #0
 633 011a FFF7FEFF 		bl	set_motor_speed
 634              	.LVL71:
 408:Src/main.c    ****         {
 635              		.loc 1 408 0
 636 011e 09E0     		b	.L42
 637              	.L43:
 410:Src/main.c    ****             print(msg, 4);
 638              		.loc 1 410 0
 639 0120 1D4B     		ldr	r3, .L48+32
 640 0122 5A6A     		ldr	r2, [r3, #36]
 641 0124 01A8     		add	r0, sp, #4
 642 0126 2449     		ldr	r1, .L48+64
 643 0128 FFF7FEFF 		bl	sprintf
 644              	.LVL72:
 411:Src/main.c    ****         }
 645              		.loc 1 411 0
 646 012c 01A8     		add	r0, sp, #4
 647 012e 0421     		movs	r1, #4
 648 0130 FFF7FEFF 		bl	print
 649              	.LVL73:
 650              	.L42:
 408:Src/main.c    ****         {
 651              		.loc 1 408 0
 652 0134 184B     		ldr	r3, .L48+32
 653 0136 5B6A     		ldr	r3, [r3, #36]
 654 0138 AB42     		cmp	r3, r5
 655 013a F1D3     		bcc	.L43
 413:Src/main.c    ****         print(msg, 4);
 656              		.loc 1 413 0
 657 013c 164C     		ldr	r4, .L48+32
 658 013e 626A     		ldr	r2, [r4, #36]
 659 0140 01A8     		add	r0, sp, #4
 660 0142 1D49     		ldr	r1, .L48+64
 661 0144 FFF7FEFF 		bl	sprintf
 662              	.LVL74:
 414:Src/main.c    ****         TIM4->CNT = 0;
 663              		.loc 1 414 0
 664 0148 01A8     		add	r0, sp, #4
 665 014a 0421     		movs	r1, #4
 666 014c FFF7FEFF 		bl	print
 667              	.LVL75:
 415:Src/main.c    ****     }
 668              		.loc 1 415 0
 669 0150 0023     		movs	r3, #0
 670 0152 6362     		str	r3, [r4, #36]
 671              	.L40:
 417:Src/main.c    ****     set_motor_speed(TIM_CHANNEL_3, 0);
 672              		.loc 1 417 0
 673 0154 0020     		movs	r0, #0
 674 0156 0146     		mov	r1, r0
 675 0158 FFF7FEFF 		bl	set_motor_speed
 676              	.LVL76:
 418:Src/main.c    ****     HAL_ADC_Stop_DMA(&hadc1);
ARM GAS  /var/folders/68/n33lqcg953z5y1x0pvkj58xc0000gn/T//ccEgjW3d.s 			page 23


 677              		.loc 1 418 0
 678 015c 0820     		movs	r0, #8
 679 015e 0021     		movs	r1, #0
 680 0160 FFF7FEFF 		bl	set_motor_speed
 681              	.LVL77:
 419:Src/main.c    **** }
 682              		.loc 1 419 0
 683 0164 0848     		ldr	r0, .L48+16
 684 0166 FFF7FEFF 		bl	HAL_ADC_Stop_DMA
 685              	.LVL78:
 420:Src/main.c    **** 
 686              		.loc 1 420 0
 687 016a 07B0     		add	sp, sp, #28
 688              	.LCFI12:
 689              		.cfi_def_cfa_offset 28
 690              		@ sp needed
 691 016c BDEC028B 		fldmfdd	sp!, {d8}
 692              	.LCFI13:
 693              		.cfi_restore 80
 694              		.cfi_restore 81
 695              		.cfi_def_cfa_offset 20
 696              	.LVL79:
 697 0170 F0BD     		pop	{r4, r5, r6, r7, pc}
 698              	.LVL80:
 699              	.L49:
 700 0172 00BFAFF3 		.align	3
 700      0080
 701              	.L48:
 702 0178 7B14AE47 		.word	1202590843
 703 017c E17AA4BF 		.word	-1079739679
 704 0180 7B14AE47 		.word	1202590843
 705 0184 E17AA43F 		.word	1067743969
 706 0188 00000000 		.word	hadc1
 707 018c 00000000 		.word	dma_buffer
 708 0190 00000000 		.word	adc_values
 709 0194 00005940 		.word	1079574528
 710 0198 00080040 		.word	1073743872
 711 019c 10000000 		.word	.LC2
 712 01a0 00007A44 		.word	1148846080
 713 01a4 1C000000 		.word	.LC3
 714 01a8 00000000 		.word	.LANCHOR0
 715 01ac 000C0040 		.word	1073744896
 716 01b0 28000000 		.word	.LC4
 717 01b4 00000000 		.word	.LANCHOR1
 718 01b8 38000000 		.word	.LC5
 719              		.cfi_endproc
 720              	.LFE126:
 722              		.global	__aeabi_i2d
 723              		.global	__aeabi_dadd
 724              		.section	.text.turn_deg,"ax",%progbits
 725              		.align	2
 726              		.global	turn_deg
 727              		.thumb
 728              		.thumb_func
 730              	turn_deg:
 731              	.LFB127:
 427:Src/main.c    ****     HAL_ADC_Start_DMA(&hadc1, dma_buffer, sizeof(dma_buffer) / sizeof(dma_buffer[0]));
ARM GAS  /var/folders/68/n33lqcg953z5y1x0pvkj58xc0000gn/T//ccEgjW3d.s 			page 24


 732              		.loc 1 427 0
 733              		.cfi_startproc
 734              		@ args = 0, pretend = 0, frame = 24
 735              		@ frame_needed = 0, uses_anonymous_args = 0
 736              	.LVL81:
 737 0000 30B5     		push	{r4, r5, lr}
 738              	.LCFI14:
 739              		.cfi_def_cfa_offset 12
 740              		.cfi_offset 4, -12
 741              		.cfi_offset 5, -8
 742              		.cfi_offset 14, -4
 743 0002 87B0     		sub	sp, sp, #28
 744              	.LCFI15:
 745              		.cfi_def_cfa_offset 40
 746 0004 0546     		mov	r5, r0
 428:Src/main.c    ****         uint16_t counts = 50.0 / 90.0 * (deg-90) + 50;
 747              		.loc 1 428 0
 748 0006 2C48     		ldr	r0, .L55+8
 749              	.LVL82:
 750 0008 2C49     		ldr	r1, .L55+12
 751 000a 4FF40062 		mov	r2, #2048
 752 000e FFF7FEFF 		bl	HAL_ADC_Start_DMA
 753              	.LVL83:
 429:Src/main.c    ****         TIM4->CNT = 0;
 754              		.loc 1 429 0
 755 0012 A5F15A00 		sub	r0, r5, #90
 756 0016 FFF7FEFF 		bl	__aeabi_i2d
 757              	.LVL84:
 758 001a 25A3     		adr	r3, .L55
 759 001c D3E90023 		ldrd	r2, [r3]
 760 0020 FFF7FEFF 		bl	__aeabi_dmul
 761              	.LVL85:
 762 0024 0022     		movs	r2, #0
 763 0026 264B     		ldr	r3, .L55+16
 764 0028 FFF7FEFF 		bl	__aeabi_dadd
 765              	.LVL86:
 766 002c FFF7FEFF 		bl	__aeabi_d2uiz
 767              	.LVL87:
 768 0030 84B2     		uxth	r4, r0
 769              	.LVL88:
 430:Src/main.c    ****         TIM5->CNT = 0;
 770              		.loc 1 430 0
 771 0032 0023     		movs	r3, #0
 772 0034 234A     		ldr	r2, .L55+20
 773 0036 5362     		str	r3, [r2, #36]
 431:Src/main.c    ****         
 774              		.loc 1 431 0
 775 0038 02F58062 		add	r2, r2, #1024
 776 003c 5362     		str	r3, [r2, #36]
 433:Src/main.c    ****         
 777              		.loc 1 433 0
 778 003e 0193     		str	r3, [sp, #4]
 779 0040 0293     		str	r3, [sp, #8]
 780 0042 0393     		str	r3, [sp, #12]
 781 0044 0493     		str	r3, [sp, #16]
 782 0046 ADF81430 		strh	r3, [sp, #20]	@ movhi
 435:Src/main.c    ****         {
ARM GAS  /var/folders/68/n33lqcg953z5y1x0pvkj58xc0000gn/T//ccEgjW3d.s 			page 25


 783              		.loc 1 435 0
 784 004a 1DB3     		cbz	r5, .L51
 437:Src/main.c    ****             set_motor_speed(TIM_CHANNEL_3, 30000);
 785              		.loc 1 437 0
 786 004c 1846     		mov	r0, r3
 787 004e 1946     		mov	r1, r3
 788 0050 FFF7FEFF 		bl	set_motor_speed
 789              	.LVL89:
 438:Src/main.c    ****             while (TIM5->CNT < counts)
 790              		.loc 1 438 0
 791 0054 0820     		movs	r0, #8
 792 0056 47F23051 		movw	r1, #30000
 793 005a FFF7FEFF 		bl	set_motor_speed
 794              	.LVL90:
 439:Src/main.c    ****             {
 795              		.loc 1 439 0
 796 005e 09E0     		b	.L52
 797              	.L53:
 441:Src/main.c    ****                 print(msg, 4);
 798              		.loc 1 441 0
 799 0060 194B     		ldr	r3, .L55+24
 800 0062 5A6A     		ldr	r2, [r3, #36]
 801 0064 01A8     		add	r0, sp, #4
 802 0066 1949     		ldr	r1, .L55+28
 803 0068 FFF7FEFF 		bl	sprintf
 804              	.LVL91:
 442:Src/main.c    ****             }
 805              		.loc 1 442 0
 806 006c 01A8     		add	r0, sp, #4
 807 006e 0421     		movs	r1, #4
 808 0070 FFF7FEFF 		bl	print
 809              	.LVL92:
 810              	.L52:
 439:Src/main.c    ****             {
 811              		.loc 1 439 0
 812 0074 144B     		ldr	r3, .L55+24
 813 0076 5B6A     		ldr	r3, [r3, #36]
 814 0078 A342     		cmp	r3, r4
 815 007a F1D3     		bcc	.L53
 444:Src/main.c    ****             print(msg, 4);
 816              		.loc 1 444 0
 817 007c 124C     		ldr	r4, .L55+24
 818              	.LVL93:
 819 007e 626A     		ldr	r2, [r4, #36]
 820 0080 01A8     		add	r0, sp, #4
 821 0082 1249     		ldr	r1, .L55+28
 822 0084 FFF7FEFF 		bl	sprintf
 823              	.LVL94:
 445:Src/main.c    ****             TIM5->CNT = 0;
 824              		.loc 1 445 0
 825 0088 01A8     		add	r0, sp, #4
 826 008a 0421     		movs	r1, #4
 827 008c FFF7FEFF 		bl	print
 828              	.LVL95:
 446:Src/main.c    ****         }
 829              		.loc 1 446 0
 830 0090 0023     		movs	r3, #0
ARM GAS  /var/folders/68/n33lqcg953z5y1x0pvkj58xc0000gn/T//ccEgjW3d.s 			page 26


 831 0092 6362     		str	r3, [r4, #36]
 832              	.L51:
 461:Src/main.c    ****         set_motor_speed(TIM_CHANNEL_3, 0);
 833              		.loc 1 461 0
 834 0094 0020     		movs	r0, #0
 835 0096 0146     		mov	r1, r0
 836 0098 FFF7FEFF 		bl	set_motor_speed
 837              	.LVL96:
 462:Src/main.c    ****         HAL_ADC_Stop_DMA(&hadc1);
 838              		.loc 1 462 0
 839 009c 0820     		movs	r0, #8
 840 009e 0021     		movs	r1, #0
 841 00a0 FFF7FEFF 		bl	set_motor_speed
 842              	.LVL97:
 463:Src/main.c    **** }
 843              		.loc 1 463 0
 844 00a4 0448     		ldr	r0, .L55+8
 845 00a6 FFF7FEFF 		bl	HAL_ADC_Stop_DMA
 846              	.LVL98:
 464:Src/main.c    **** 
 847              		.loc 1 464 0
 848 00aa 07B0     		add	sp, sp, #28
 849              	.LCFI16:
 850              		.cfi_def_cfa_offset 12
 851              		@ sp needed
 852 00ac 30BD     		pop	{r4, r5, pc}
 853              	.L56:
 854 00ae 00BF     		.align	3
 855              	.L55:
 856 00b0 721CC771 		.word	1908874354
 857 00b4 1CC7E13F 		.word	1071761180
 858 00b8 00000000 		.word	hadc1
 859 00bc 00000000 		.word	dma_buffer
 860 00c0 00004940 		.word	1078525952
 861 00c4 00080040 		.word	1073743872
 862 00c8 000C0040 		.word	1073744896
 863 00cc 28000000 		.word	.LC4
 864              		.cfi_endproc
 865              	.LFE127:
 867              		.section	.text.encoder_pid,"ax",%progbits
 868              		.align	2
 869              		.global	encoder_pid
 870              		.thumb
 871              		.thumb_func
 873              	encoder_pid:
 874              	.LFB133:
 555:Src/main.c    **** }
 556:Src/main.c    **** 
 557:Src/main.c    **** void encoder_pid(PID_t *enc_pid)
 558:Src/main.c    **** {
 875              		.loc 1 558 0
 876              		.cfi_startproc
 877              		@ args = 0, pretend = 0, frame = 24
 878              		@ frame_needed = 0, uses_anonymous_args = 0
 879              	.LVL99:
 880 0000 2DE9F041 		push	{r4, r5, r6, r7, r8, lr}
 881              	.LCFI17:
ARM GAS  /var/folders/68/n33lqcg953z5y1x0pvkj58xc0000gn/T//ccEgjW3d.s 			page 27


 882              		.cfi_def_cfa_offset 24
 883              		.cfi_offset 4, -24
 884              		.cfi_offset 5, -20
 885              		.cfi_offset 6, -16
 886              		.cfi_offset 7, -12
 887              		.cfi_offset 8, -8
 888              		.cfi_offset 14, -4
 889 0004 86B0     		sub	sp, sp, #24
 890              	.LCFI18:
 891              		.cfi_def_cfa_offset 48
 559:Src/main.c    ****     /* Get error */
 560:Src/main.c    ****     uint32_t lcnt = TIM4->CNT;
 892              		.loc 1 560 0
 893 0006 264B     		ldr	r3, .L63
 894 0008 5F6A     		ldr	r7, [r3, #36]
 895              	.LVL100:
 561:Src/main.c    ****     uint32_t rcnt = TIM5->CNT;
 896              		.loc 1 561 0
 897 000a 03F58063 		add	r3, r3, #1024
 898 000e D3F82480 		ldr	r8, [r3, #36]
 899              	.LVL101:
 562:Src/main.c    ****     enc_pid->err = lcnt - rcnt;
 900              		.loc 1 562 0
 901 0012 C8EB0703 		rsb	r3, r8, r7
 902 0016 0361     		str	r3, [r0, #16]
 563:Src/main.c    ****     
 564:Src/main.c    ****     /* Get gain */
 565:Src/main.c    ****     // Gain <0 for ride side faster
 566:Src/main.c    ****     int gain = pid_GetGain(enc_pid);
 903              		.loc 1 566 0
 904 0018 FFF7FEFF 		bl	pid_GetGain
 905              	.LVL102:
 567:Src/main.c    ****     
 568:Src/main.c    ****     /* Set Motor Speeds*/
 569:Src/main.c    ****     uint32_t lspeed = LEFT_SPEED;
 906              		.loc 1 569 0
 907 001c 214B     		ldr	r3, .L63+4
 908 001e 1E88     		ldrh	r6, [r3]
 909              	.LVL103:
 570:Src/main.c    ****     uint32_t rspeed = RIGHT_SPEED;
 910              		.loc 1 570 0
 911 0020 214B     		ldr	r3, .L63+8
 912 0022 1D88     		ldrh	r5, [r3]
 913              	.LVL104:
 571:Src/main.c    ****     if(gain<0){
 914              		.loc 1 571 0
 915 0024 0028     		cmp	r0, #0
 916 0026 01DA     		bge	.L58
 572:Src/main.c    ****         lspeed -= gain;
 917              		.loc 1 572 0
 918 0028 361A     		subs	r6, r6, r0
 919              	.LVL105:
 920 002a 02E0     		b	.L59
 921              	.L58:
 573:Src/main.c    ****     }else if(gain>0){
 922              		.loc 1 573 0
 923 002c 0028     		cmp	r0, #0
ARM GAS  /var/folders/68/n33lqcg953z5y1x0pvkj58xc0000gn/T//ccEgjW3d.s 			page 28


 924 002e 00DD     		ble	.L59
 574:Src/main.c    ****         rspeed += gain;
 925              		.loc 1 574 0
 926 0030 0544     		add	r5, r5, r0
 927              	.LVL106:
 928              	.L59:
 575:Src/main.c    ****     }
 576:Src/main.c    **** 
 577:Src/main.c    ****     char msg[18] = "";
 929              		.loc 1 577 0
 930 0032 0024     		movs	r4, #0
 931 0034 0194     		str	r4, [sp, #4]
 932 0036 0294     		str	r4, [sp, #8]
 933 0038 0394     		str	r4, [sp, #12]
 934 003a 0494     		str	r4, [sp, #16]
 935 003c ADF81440 		strh	r4, [sp, #20]	@ movhi
 578:Src/main.c    ****     sprintf(msg, "LS: %lu", lspeed);
 936              		.loc 1 578 0
 937 0040 01A8     		add	r0, sp, #4
 938              	.LVL107:
 939 0042 1A49     		ldr	r1, .L63+12
 940 0044 3246     		mov	r2, r6
 941 0046 FFF7FEFF 		bl	sprintf
 942              	.LVL108:
 579:Src/main.c    ****     print(msg, 0);
 943              		.loc 1 579 0
 944 004a 01A8     		add	r0, sp, #4
 945 004c 2146     		mov	r1, r4
 946 004e FFF7FEFF 		bl	print
 947              	.LVL109:
 580:Src/main.c    ****     sprintf(msg, "RS: %lu", rspeed);
 948              		.loc 1 580 0
 949 0052 01A8     		add	r0, sp, #4
 950 0054 1649     		ldr	r1, .L63+16
 951 0056 2A46     		mov	r2, r5
 952 0058 FFF7FEFF 		bl	sprintf
 953              	.LVL110:
 581:Src/main.c    ****     print(msg, 1);
 954              		.loc 1 581 0
 955 005c 01A8     		add	r0, sp, #4
 956 005e 0121     		movs	r1, #1
 957 0060 FFF7FEFF 		bl	print
 958              	.LVL111:
 582:Src/main.c    ****     set_motor_speed(TIM_CHANNEL_1, lspeed);
 959              		.loc 1 582 0
 960 0064 2046     		mov	r0, r4
 961 0066 3146     		mov	r1, r6
 962 0068 FFF7FEFF 		bl	set_motor_speed
 963              	.LVL112:
 583:Src/main.c    ****     set_motor_speed(TIM_CHANNEL_3, rspeed);
 964              		.loc 1 583 0
 965 006c 0820     		movs	r0, #8
 966 006e 2946     		mov	r1, r5
 967 0070 FFF7FEFF 		bl	set_motor_speed
 968              	.LVL113:
 584:Src/main.c    ****     
 585:Src/main.c    ****     /* Prevent weird overflow shit */
ARM GAS  /var/folders/68/n33lqcg953z5y1x0pvkj58xc0000gn/T//ccEgjW3d.s 			page 29


 586:Src/main.c    ****     if(lcnt>60000 || rcnt>60000){
 969              		.loc 1 586 0
 970 0074 4EF66023 		movw	r3, #60000
 971 0078 9F42     		cmp	r7, r3
 972 007a 01D8     		bhi	.L60
 973              		.loc 1 586 0 is_stmt 0 discriminator 1
 974 007c 9845     		cmp	r8, r3
 975 007e 0CD9     		bls	.L57
 976              	.L60:
 587:Src/main.c    ****         TIM4->CNT -= 50000;
 977              		.loc 1 587 0 is_stmt 1
 978 0080 074A     		ldr	r2, .L63
 979 0082 536A     		ldr	r3, [r2, #36]
 980 0084 A3F54343 		sub	r3, r3, #49920
 981 0088 503B     		subs	r3, r3, #80
 982 008a 5362     		str	r3, [r2, #36]
 588:Src/main.c    ****         TIM5->CNT -= 50000;
 983              		.loc 1 588 0
 984 008c 02F58062 		add	r2, r2, #1024
 985 0090 536A     		ldr	r3, [r2, #36]
 986 0092 A3F54343 		sub	r3, r3, #49920
 987 0096 503B     		subs	r3, r3, #80
 988 0098 5362     		str	r3, [r2, #36]
 989              	.L57:
 589:Src/main.c    ****     }
 590:Src/main.c    **** }
 990              		.loc 1 590 0
 991 009a 06B0     		add	sp, sp, #24
 992              	.LCFI19:
 993              		.cfi_def_cfa_offset 24
 994              		@ sp needed
 995 009c BDE8F081 		pop	{r4, r5, r6, r7, r8, pc}
 996              	.LVL114:
 997              	.L64:
 998              		.align	2
 999              	.L63:
 1000 00a0 00080040 		.word	1073743872
 1001 00a4 00000000 		.word	.LANCHOR1
 1002 00a8 00000000 		.word	.LANCHOR0
 1003 00ac 48000000 		.word	.LC6
 1004 00b0 50000000 		.word	.LC7
 1005              		.cfi_endproc
 1006              	.LFE133:
 1008              		.section	.text._Error_Handler,"ax",%progbits
 1009              		.align	2
 1010              		.global	_Error_Handler
 1011              		.thumb
 1012              		.thumb_func
 1014              	_Error_Handler:
 1015              	.LFB134:
 591:Src/main.c    **** 
 592:Src/main.c    **** /* USER CODE END 4 */
 593:Src/main.c    **** 
 594:Src/main.c    **** /**
 595:Src/main.c    ****   * @brief  This function is executed in case of error occurrence.
 596:Src/main.c    ****   * @param  file: The file name as string.
 597:Src/main.c    ****   * @param  line: The line in file as a number.
ARM GAS  /var/folders/68/n33lqcg953z5y1x0pvkj58xc0000gn/T//ccEgjW3d.s 			page 30


 598:Src/main.c    ****   * @retval None
 599:Src/main.c    ****   */
 600:Src/main.c    **** void _Error_Handler(char *file, int line)
 601:Src/main.c    **** {
 1016              		.loc 1 601 0
 1017              		.cfi_startproc
 1018              		@ Volatile: function does not return.
 1019              		@ args = 0, pretend = 0, frame = 0
 1020              		@ frame_needed = 0, uses_anonymous_args = 0
 1021              		@ link register save eliminated.
 1022              	.LVL115:
 1023              	.L66:
 602:Src/main.c    ****   /* USER CODE BEGIN Error_Handler_Debug */
 603:Src/main.c    ****     /* User can add his own implementation to report the HAL error return state */
 604:Src/main.c    ****     while (1)
 605:Src/main.c    ****     {
 606:Src/main.c    ****     }
 1024              		.loc 1 606 0 discriminator 1
 1025 0000 FEE7     		b	.L66
 1026              		.cfi_endproc
 1027              	.LFE134:
 1029 0002 00BF     		.section	.text.SystemClock_Config,"ax",%progbits
 1030              		.align	2
 1031              		.global	SystemClock_Config
 1032              		.thumb
 1033              		.thumb_func
 1035              	SystemClock_Config:
 1036              	.LFB125:
 314:Src/main.c    **** 
 1037              		.loc 1 314 0
 1038              		.cfi_startproc
 1039              		@ args = 0, pretend = 0, frame = 80
 1040              		@ frame_needed = 0, uses_anonymous_args = 0
 1041 0000 00B5     		push	{lr}
 1042              	.LCFI20:
 1043              		.cfi_def_cfa_offset 4
 1044              		.cfi_offset 14, -4
 1045 0002 95B0     		sub	sp, sp, #84
 1046              	.LCFI21:
 1047              		.cfi_def_cfa_offset 88
 1048              	.LBB2:
 321:Src/main.c    **** 
 1049              		.loc 1 321 0
 1050 0004 0022     		movs	r2, #0
 1051 0006 0192     		str	r2, [sp, #4]
 1052 0008 2A4B     		ldr	r3, .L71
 1053 000a 196C     		ldr	r1, [r3, #64]
 1054 000c 41F08051 		orr	r1, r1, #268435456
 1055 0010 1964     		str	r1, [r3, #64]
 1056 0012 1B6C     		ldr	r3, [r3, #64]
 1057 0014 03F08053 		and	r3, r3, #268435456
 1058 0018 0193     		str	r3, [sp, #4]
 1059 001a 019B     		ldr	r3, [sp, #4]
 1060              	.LBE2:
 1061              	.LBB3:
 323:Src/main.c    **** 
 1062              		.loc 1 323 0
ARM GAS  /var/folders/68/n33lqcg953z5y1x0pvkj58xc0000gn/T//ccEgjW3d.s 			page 31


 1063 001c 0292     		str	r2, [sp, #8]
 1064 001e 2649     		ldr	r1, .L71+4
 1065 0020 0B68     		ldr	r3, [r1]
 1066 0022 23F44043 		bic	r3, r3, #49152
 1067 0026 43F40043 		orr	r3, r3, #32768
 1068 002a 0B60     		str	r3, [r1]
 1069 002c 0B68     		ldr	r3, [r1]
 1070 002e 03F44043 		and	r3, r3, #49152
 1071 0032 0293     		str	r3, [sp, #8]
 1072 0034 029B     		ldr	r3, [sp, #8]
 1073              	.LBE3:
 327:Src/main.c    ****   RCC_OscInitStruct.HSIState = RCC_HSI_ON;
 1074              		.loc 1 327 0
 1075 0036 0223     		movs	r3, #2
 1076 0038 0893     		str	r3, [sp, #32]
 328:Src/main.c    ****   RCC_OscInitStruct.HSICalibrationValue = 16;
 1077              		.loc 1 328 0
 1078 003a 0121     		movs	r1, #1
 1079 003c 0B91     		str	r1, [sp, #44]
 329:Src/main.c    ****   RCC_OscInitStruct.PLL.PLLState = RCC_PLL_ON;
 1080              		.loc 1 329 0
 1081 003e 1021     		movs	r1, #16
 1082 0040 0C91     		str	r1, [sp, #48]
 330:Src/main.c    ****   RCC_OscInitStruct.PLL.PLLSource = RCC_PLLSOURCE_HSI;
 1083              		.loc 1 330 0
 1084 0042 0E93     		str	r3, [sp, #56]
 331:Src/main.c    ****   RCC_OscInitStruct.PLL.PLLM = 8;
 1085              		.loc 1 331 0
 1086 0044 0F92     		str	r2, [sp, #60]
 332:Src/main.c    ****   RCC_OscInitStruct.PLL.PLLN = 72;
 1087              		.loc 1 332 0
 1088 0046 0822     		movs	r2, #8
 1089 0048 1092     		str	r2, [sp, #64]
 333:Src/main.c    ****   RCC_OscInitStruct.PLL.PLLP = RCC_PLLP_DIV2;
 1090              		.loc 1 333 0
 1091 004a 4822     		movs	r2, #72
 1092 004c 1192     		str	r2, [sp, #68]
 334:Src/main.c    ****   RCC_OscInitStruct.PLL.PLLQ = 4;
 1093              		.loc 1 334 0
 1094 004e 1293     		str	r3, [sp, #72]
 335:Src/main.c    ****   if (HAL_RCC_OscConfig(&RCC_OscInitStruct) != HAL_OK)
 1095              		.loc 1 335 0
 1096 0050 0423     		movs	r3, #4
 1097 0052 1393     		str	r3, [sp, #76]
 336:Src/main.c    ****   {
 1098              		.loc 1 336 0
 1099 0054 08A8     		add	r0, sp, #32
 1100 0056 FFF7FEFF 		bl	HAL_RCC_OscConfig
 1101              	.LVL116:
 1102 005a 20B1     		cbz	r0, .L68
 338:Src/main.c    ****   }
 1103              		.loc 1 338 0
 1104 005c 1748     		ldr	r0, .L71+8
 1105 005e 4FF4A971 		mov	r1, #338
 1106 0062 FFF7FEFF 		bl	_Error_Handler
 1107              	.LVL117:
 1108              	.L68:
ARM GAS  /var/folders/68/n33lqcg953z5y1x0pvkj58xc0000gn/T//ccEgjW3d.s 			page 32


 343:Src/main.c    ****                               |RCC_CLOCKTYPE_PCLK1|RCC_CLOCKTYPE_PCLK2;
 1109              		.loc 1 343 0
 1110 0066 0F23     		movs	r3, #15
 1111 0068 0393     		str	r3, [sp, #12]
 345:Src/main.c    ****   RCC_ClkInitStruct.AHBCLKDivider = RCC_SYSCLK_DIV1;
 1112              		.loc 1 345 0
 1113 006a 0221     		movs	r1, #2
 1114 006c 0491     		str	r1, [sp, #16]
 346:Src/main.c    ****   RCC_ClkInitStruct.APB1CLKDivider = RCC_HCLK_DIV2;
 1115              		.loc 1 346 0
 1116 006e 0023     		movs	r3, #0
 1117 0070 0593     		str	r3, [sp, #20]
 347:Src/main.c    ****   RCC_ClkInitStruct.APB2CLKDivider = RCC_HCLK_DIV1;
 1118              		.loc 1 347 0
 1119 0072 4FF48052 		mov	r2, #4096
 1120 0076 0692     		str	r2, [sp, #24]
 348:Src/main.c    **** 
 1121              		.loc 1 348 0
 1122 0078 0793     		str	r3, [sp, #28]
 350:Src/main.c    ****   {
 1123              		.loc 1 350 0
 1124 007a 03A8     		add	r0, sp, #12
 1125 007c FFF7FEFF 		bl	HAL_RCC_ClockConfig
 1126              	.LVL118:
 1127 0080 20B1     		cbz	r0, .L69
 352:Src/main.c    ****   }
 1128              		.loc 1 352 0
 1129 0082 0E48     		ldr	r0, .L71+8
 1130 0084 4FF4B071 		mov	r1, #352
 1131 0088 FFF7FEFF 		bl	_Error_Handler
 1132              	.LVL119:
 1133              	.L69:
 357:Src/main.c    **** 
 1134              		.loc 1 357 0
 1135 008c FFF7FEFF 		bl	HAL_RCC_GetHCLKFreq
 1136              	.LVL120:
 1137 0090 0B4B     		ldr	r3, .L71+12
 1138 0092 A3FB0030 		umull	r3, r0, r3, r0
 1139 0096 8009     		lsrs	r0, r0, #6
 1140 0098 FFF7FEFF 		bl	HAL_SYSTICK_Config
 1141              	.LVL121:
 361:Src/main.c    **** 
 1142              		.loc 1 361 0
 1143 009c 0420     		movs	r0, #4
 1144 009e FFF7FEFF 		bl	HAL_SYSTICK_CLKSourceConfig
 1145              	.LVL122:
 364:Src/main.c    **** }
 1146              		.loc 1 364 0
 1147 00a2 4FF0FF30 		mov	r0, #-1
 1148 00a6 0021     		movs	r1, #0
 1149 00a8 0A46     		mov	r2, r1
 1150 00aa FFF7FEFF 		bl	HAL_NVIC_SetPriority
 1151              	.LVL123:
 365:Src/main.c    **** 
 1152              		.loc 1 365 0
 1153 00ae 15B0     		add	sp, sp, #84
 1154              	.LCFI22:
ARM GAS  /var/folders/68/n33lqcg953z5y1x0pvkj58xc0000gn/T//ccEgjW3d.s 			page 33


 1155              		.cfi_def_cfa_offset 4
 1156              		@ sp needed
 1157 00b0 5DF804FB 		ldr	pc, [sp], #4
 1158              	.L72:
 1159              		.align	2
 1160              	.L71:
 1161 00b4 00380240 		.word	1073887232
 1162 00b8 00700040 		.word	1073770496
 1163 00bc 58000000 		.word	.LC8
 1164 00c0 D34D6210 		.word	274877907
 1165              		.cfi_endproc
 1166              	.LFE125:
 1168              		.section	.text.main,"ax",%progbits
 1169              		.align	2
 1170              		.global	main
 1171              		.thumb
 1172              		.thumb_func
 1174              	main:
 1175              	.LFB124:
 106:Src/main.c    ****   /* USER CODE BEGIN 1 */
 1176              		.loc 1 106 0
 1177              		.cfi_startproc
 1178              		@ args = 0, pretend = 0, frame = 24
 1179              		@ frame_needed = 0, uses_anonymous_args = 0
 1180 0000 10B5     		push	{r4, lr}
 1181              	.LCFI23:
 1182              		.cfi_def_cfa_offset 8
 1183              		.cfi_offset 4, -8
 1184              		.cfi_offset 14, -4
 1185 0002 88B0     		sub	sp, sp, #32
 1186              	.LCFI24:
 1187              		.cfi_def_cfa_offset 40
 114:Src/main.c    **** 
 1188              		.loc 1 114 0
 1189 0004 FFF7FEFF 		bl	HAL_Init
 1190              	.LVL124:
 121:Src/main.c    **** 
 1191              		.loc 1 121 0
 1192 0008 FFF7FEFF 		bl	SystemClock_Config
 1193              	.LVL125:
 128:Src/main.c    ****   MX_DMA_Init();
 1194              		.loc 1 128 0
 1195 000c FFF7FEFF 		bl	MX_GPIO_Init
 1196              	.LVL126:
 129:Src/main.c    ****   MX_TIM3_Init();
 1197              		.loc 1 129 0
 1198 0010 FFF7FEFF 		bl	MX_DMA_Init
 1199              	.LVL127:
 130:Src/main.c    ****   MX_TIM1_Init();
 1200              		.loc 1 130 0
 1201 0014 FFF7FEFF 		bl	MX_TIM3_Init
 1202              	.LVL128:
 131:Src/main.c    ****   MX_TIM2_Init();
 1203              		.loc 1 131 0
 1204 0018 FFF7FEFF 		bl	MX_TIM1_Init
 1205              	.LVL129:
 132:Src/main.c    ****   MX_USART6_UART_Init();
ARM GAS  /var/folders/68/n33lqcg953z5y1x0pvkj58xc0000gn/T//ccEgjW3d.s 			page 34


 1206              		.loc 1 132 0
 1207 001c FFF7FEFF 		bl	MX_TIM2_Init
 1208              	.LVL130:
 133:Src/main.c    ****   MX_ADC1_Init();
 1209              		.loc 1 133 0
 1210 0020 FFF7FEFF 		bl	MX_USART6_UART_Init
 1211              	.LVL131:
 134:Src/main.c    ****   MX_I2C1_Init();
 1212              		.loc 1 134 0
 1213 0024 FFF7FEFF 		bl	MX_ADC1_Init
 1214              	.LVL132:
 135:Src/main.c    ****   MX_TIM4_Init();
 1215              		.loc 1 135 0
 1216 0028 FFF7FEFF 		bl	MX_I2C1_Init
 1217              	.LVL133:
 136:Src/main.c    ****   MX_TIM9_Init();
 1218              		.loc 1 136 0
 1219 002c FFF7FEFF 		bl	MX_TIM4_Init
 1220              	.LVL134:
 137:Src/main.c    ****   MX_TIM5_Init();
 1221              		.loc 1 137 0
 1222 0030 FFF7FEFF 		bl	MX_TIM9_Init
 1223              	.LVL135:
 138:Src/main.c    ****   /* USER CODE BEGIN 2 */
 1224              		.loc 1 138 0
 1225 0034 FFF7FEFF 		bl	MX_TIM5_Init
 1226              	.LVL136:
 155:Src/main.c    ****     HAL_TIM_Encoder_Start(&htim5, TIM_CHANNEL_ALL);
 1227              		.loc 1 155 0
 1228 0038 2348     		ldr	r0, .L76
 1229 003a 1821     		movs	r1, #24
 1230 003c FFF7FEFF 		bl	HAL_TIM_Encoder_Start
 1231              	.LVL137:
 156:Src/main.c    ****     HAL_TIM_PWM_Start(&htim1, TIM_CHANNEL_1);
 1232              		.loc 1 156 0
 1233 0040 2248     		ldr	r0, .L76+4
 1234 0042 1821     		movs	r1, #24
 1235 0044 FFF7FEFF 		bl	HAL_TIM_Encoder_Start
 1236              	.LVL138:
 157:Src/main.c    ****     HAL_TIM_PWM_Start(&htim1, TIM_CHANNEL_2);
 1237              		.loc 1 157 0
 1238 0048 214C     		ldr	r4, .L76+8
 1239 004a 2046     		mov	r0, r4
 1240 004c 0021     		movs	r1, #0
 1241 004e FFF7FEFF 		bl	HAL_TIM_PWM_Start
 1242              	.LVL139:
 158:Src/main.c    ****     HAL_TIM_PWM_Start(&htim1, TIM_CHANNEL_3);
 1243              		.loc 1 158 0
 1244 0052 2046     		mov	r0, r4
 1245 0054 0421     		movs	r1, #4
 1246 0056 FFF7FEFF 		bl	HAL_TIM_PWM_Start
 1247              	.LVL140:
 159:Src/main.c    ****     HAL_TIM_PWM_Start(&htim1, TIM_CHANNEL_4);
 1248              		.loc 1 159 0
 1249 005a 2046     		mov	r0, r4
 1250 005c 0821     		movs	r1, #8
 1251 005e FFF7FEFF 		bl	HAL_TIM_PWM_Start
ARM GAS  /var/folders/68/n33lqcg953z5y1x0pvkj58xc0000gn/T//ccEgjW3d.s 			page 35


 1252              	.LVL141:
 160:Src/main.c    ****     HAL_TIM_PWM_Start(&htim3, TIM_CHANNEL_1);
 1253              		.loc 1 160 0
 1254 0062 2046     		mov	r0, r4
 1255 0064 0C21     		movs	r1, #12
 1256 0066 FFF7FEFF 		bl	HAL_TIM_PWM_Start
 1257              	.LVL142:
 161:Src/main.c    ****     HAL_TIM_PWM_Start(&htim3, TIM_CHANNEL_2);
 1258              		.loc 1 161 0
 1259 006a 1A4C     		ldr	r4, .L76+12
 1260 006c 2046     		mov	r0, r4
 1261 006e 0021     		movs	r1, #0
 1262 0070 FFF7FEFF 		bl	HAL_TIM_PWM_Start
 1263              	.LVL143:
 162:Src/main.c    ****     HAL_TIM_PWM_Start(&htim3, TIM_CHANNEL_3);
 1264              		.loc 1 162 0
 1265 0074 2046     		mov	r0, r4
 1266 0076 0421     		movs	r1, #4
 1267 0078 FFF7FEFF 		bl	HAL_TIM_PWM_Start
 1268              	.LVL144:
 163:Src/main.c    **** 
 1269              		.loc 1 163 0
 1270 007c 2046     		mov	r0, r4
 1271 007e 0821     		movs	r1, #8
 1272 0080 FFF7FEFF 		bl	HAL_TIM_PWM_Start
 1273              	.LVL145:
 166:Src/main.c    ****     print("Starting", 0);
 1274              		.loc 1 166 0
 1275 0084 FFF7FEFF 		bl	ssd1306_Init
 1276              	.LVL146:
 167:Src/main.c    ****     //claw_init(&htim3);
 1277              		.loc 1 167 0
 1278 0088 1348     		ldr	r0, .L76+16
 1279 008a 0021     		movs	r1, #0
 1280 008c FFF7FEFF 		bl	print
 1281              	.LVL147:
 171:Src/main.c    ****     
 1282              		.loc 1 171 0
 1283 0090 0121     		movs	r1, #1
 1284 0092 0091     		str	r1, [sp]
 1285 0094 0191     		str	r1, [sp, #4]
 1286 0096 02A8     		add	r0, sp, #8
 1287 0098 0022     		movs	r2, #0
 1288 009a 1346     		mov	r3, r2
 1289 009c FFF7FEFF 		bl	pid_Init
 1290              	.LVL148:
 173:Src/main.c    ****     set_motor_speed(TIM_CHANNEL_3, RIGHT_SPEED);
 1291              		.loc 1 173 0
 1292 00a0 0020     		movs	r0, #0
 1293 00a2 0E4B     		ldr	r3, .L76+20
 1294 00a4 1988     		ldrh	r1, [r3]
 1295 00a6 FFF7FEFF 		bl	set_motor_speed
 1296              	.LVL149:
 174:Src/main.c    **** 
 1297              		.loc 1 174 0
 1298 00aa 0820     		movs	r0, #8
 1299 00ac 0C4B     		ldr	r3, .L76+24
ARM GAS  /var/folders/68/n33lqcg953z5y1x0pvkj58xc0000gn/T//ccEgjW3d.s 			page 36


 1300 00ae 1988     		ldrh	r1, [r3]
 1301 00b0 FFF7FEFF 		bl	set_motor_speed
 1302              	.LVL150:
 177:Src/main.c    ****     HAL_NVIC_DisableIRQ(EXTI1_IRQn);
 1303              		.loc 1 177 0
 1304 00b4 0620     		movs	r0, #6
 1305 00b6 FFF7FEFF 		bl	HAL_NVIC_DisableIRQ
 1306              	.LVL151:
 178:Src/main.c    ****     HAL_NVIC_DisableIRQ(EXTI4_IRQn);
 1307              		.loc 1 178 0
 1308 00ba 0720     		movs	r0, #7
 1309 00bc FFF7FEFF 		bl	HAL_NVIC_DisableIRQ
 1310              	.LVL152:
 179:Src/main.c    ****   /* USER CODE END 2 */
 1311              		.loc 1 179 0
 1312 00c0 0A20     		movs	r0, #10
 1313 00c2 FFF7FEFF 		bl	HAL_NVIC_DisableIRQ
 1314              	.LVL153:
 1315              	.L74:
 304:Src/main.c    ****   /* USER CODE END 3 */
 1316              		.loc 1 304 0 discriminator 1
 1317 00c6 FEE7     		b	.L74
 1318              	.L77:
 1319              		.align	2
 1320              	.L76:
 1321 00c8 00000000 		.word	htim4
 1322 00cc 00000000 		.word	htim5
 1323 00d0 00000000 		.word	htim1
 1324 00d4 00000000 		.word	htim3
 1325 00d8 00000000 		.word	.LC0
 1326 00dc 00000000 		.word	.LANCHOR1
 1327 00e0 00000000 		.word	.LANCHOR0
 1328              		.cfi_endproc
 1329              	.LFE124:
 1331              		.comm	adc_values,8192,4
 1332              		.comm	dma_buffer,8192,4
 1333              		.global	RIGHT_SPEED
 1334              		.global	LEFT_SPEED
 1335              		.section	.data.RIGHT_SPEED,"aw",%progbits
 1336              		.align	1
 1337              		.set	.LANCHOR0,. + 0
 1340              	RIGHT_SPEED:
 1341 0000 5802     		.short	600
 1342              		.section	.data.LEFT_SPEED,"aw",%progbits
 1343              		.align	1
 1344              		.set	.LANCHOR1,. + 0
 1347              	LEFT_SPEED:
 1348 0000 5802     		.short	600
 1349              		.section	.rodata.str1.4,"aMS",%progbits,1
 1350              		.align	2
 1351              	.LC0:
 1352 0000 53746172 		.ascii	"Starting\000"
 1352      74696E67 
 1352      00
 1353 0009 000000   		.space	3
 1354              	.LC1:
 1355 000c 256C7500 		.ascii	"%lu\000"
ARM GAS  /var/folders/68/n33lqcg953z5y1x0pvkj58xc0000gn/T//ccEgjW3d.s 			page 37


 1356              	.LC2:
 1357 0010 636E7473 		.ascii	"cnts: %d\000"
 1357      3A202564 
 1357      00
 1358 0019 000000   		.space	3
 1359              	.LC3:
 1360 001c 766C7473 		.ascii	"vlts: %d.%d\000"
 1360      3A202564 
 1360      2E256400 
 1361              	.LC4:
 1362 0028 54494D35 		.ascii	"TIM5->CNT: %lu\000"
 1362      2D3E434E 
 1362      543A2025 
 1362      6C7500
 1363 0037 00       		.space	1
 1364              	.LC5:
 1365 0038 54494D34 		.ascii	"TIM4->CNT: %lu\000"
 1365      2D3E434E 
 1365      543A2025 
 1365      6C7500
 1366 0047 00       		.space	1
 1367              	.LC6:
 1368 0048 4C533A20 		.ascii	"LS: %lu\000"
 1368      256C7500 
 1369              	.LC7:
 1370 0050 52533A20 		.ascii	"RS: %lu\000"
 1370      256C7500 
 1371              	.LC8:
 1372 0058 5372632F 		.ascii	"Src/main.c\000"
 1372      6D61696E 
 1372      2E6300
 1373              		.text
 1374              	.Letext0:
 1375              		.file 2 "Drivers/CMSIS/Device/ST/STM32F4xx/Include/stm32f401xe.h"
 1376              		.file 3 "/usr/local/Cellar/arm-none-eabi-gcc/20150921/arm-none-eabi/include/machine/_default_types
 1377              		.file 4 "/usr/local/Cellar/arm-none-eabi-gcc/20150921/arm-none-eabi/include/sys/_stdint.h"
 1378              		.file 5 "Drivers/STM32F4xx_HAL_Driver/Inc/stm32f4xx_hal_def.h"
 1379              		.file 6 "Drivers/STM32F4xx_HAL_Driver/Inc/stm32f4xx_hal_rcc_ex.h"
 1380              		.file 7 "Drivers/STM32F4xx_HAL_Driver/Inc/stm32f4xx_hal_rcc.h"
 1381              		.file 8 "Drivers/STM32F4xx_HAL_Driver/Inc/stm32f4xx_hal_gpio.h"
 1382              		.file 9 "Drivers/STM32F4xx_HAL_Driver/Inc/stm32f4xx_hal_dma.h"
 1383              		.file 10 "Drivers/STM32F4xx_HAL_Driver/Inc/stm32f4xx_hal_adc.h"
 1384              		.file 11 "Drivers/STM32F4xx_HAL_Driver/Inc/stm32f4xx_hal_tim.h"
 1385              		.file 12 "Inc/fonts.h"
 1386              		.file 13 "Inc/ssd1306.h"
 1387              		.file 14 "Inc/pid.h"
 1388              		.file 15 "Drivers/CMSIS/Include/core_cm4.h"
 1389              		.file 16 "Inc/adc.h"
 1390              		.file 17 "Inc/tim.h"
 1391              		.file 18 "Inc/extern_vars.h"
 1392              		.file 19 "Inc/filter.h"
 1393              		.file 20 "Drivers/STM32F4xx_HAL_Driver/Inc/stm32f4xx_hal.h"
 1394              		.file 21 "/usr/local/Cellar/arm-none-eabi-gcc/20150921/arm-none-eabi/include/stdio.h"
 1395              		.file 22 "Drivers/STM32F4xx_HAL_Driver/Inc/stm32f4xx_hal_cortex.h"
 1396              		.file 23 "Inc/gpio.h"
 1397              		.file 24 "Inc/dma.h"
 1398              		.file 25 "Inc/usart.h"
ARM GAS  /var/folders/68/n33lqcg953z5y1x0pvkj58xc0000gn/T//ccEgjW3d.s 			page 38


 1399              		.file 26 "Inc/i2c.h"
ARM GAS  /var/folders/68/n33lqcg953z5y1x0pvkj58xc0000gn/T//ccEgjW3d.s 			page 39


DEFINED SYMBOLS
                            *ABS*:0000000000000000 main.c
/var/folders/68/n33lqcg953z5y1x0pvkj58xc0000gn/T//ccEgjW3d.s:21     .text.HAL_ADC_ConvCpltCallback:0000000000000000 $t
/var/folders/68/n33lqcg953z5y1x0pvkj58xc0000gn/T//ccEgjW3d.s:26     .text.HAL_ADC_ConvCpltCallback:0000000000000000 HAL_ADC_ConvCpltCallback
/var/folders/68/n33lqcg953z5y1x0pvkj58xc0000gn/T//ccEgjW3d.s:50     .text.HAL_ADC_ConvCpltCallback:0000000000000010 $d
                            *COM*:0000000000002000 adc_values
                            *COM*:0000000000002000 dma_buffer
/var/folders/68/n33lqcg953z5y1x0pvkj58xc0000gn/T//ccEgjW3d.s:60     .text.calculate_heading:0000000000000000 $t
/var/folders/68/n33lqcg953z5y1x0pvkj58xc0000gn/T//ccEgjW3d.s:65     .text.calculate_heading:0000000000000000 calculate_heading
/var/folders/68/n33lqcg953z5y1x0pvkj58xc0000gn/T//ccEgjW3d.s:96     .text.calculate_heading:0000000000000020 $d
/var/folders/68/n33lqcg953z5y1x0pvkj58xc0000gn/T//ccEgjW3d.s:104    .text.alarm_detect:0000000000000000 $t
/var/folders/68/n33lqcg953z5y1x0pvkj58xc0000gn/T//ccEgjW3d.s:109    .text.alarm_detect:0000000000000000 alarm_detect
/var/folders/68/n33lqcg953z5y1x0pvkj58xc0000gn/T//ccEgjW3d.s:183    .text.alarm_detect:0000000000000078 $d
/var/folders/68/n33lqcg953z5y1x0pvkj58xc0000gn/T//ccEgjW3d.s:192    .text.print:0000000000000000 $t
/var/folders/68/n33lqcg953z5y1x0pvkj58xc0000gn/T//ccEgjW3d.s:197    .text.print:0000000000000000 print
/var/folders/68/n33lqcg953z5y1x0pvkj58xc0000gn/T//ccEgjW3d.s:244    .text.print:0000000000000034 $d
/var/folders/68/n33lqcg953z5y1x0pvkj58xc0000gn/T//ccEgjW3d.s:249    .text.menu:0000000000000000 $t
/var/folders/68/n33lqcg953z5y1x0pvkj58xc0000gn/T//ccEgjW3d.s:254    .text.menu:0000000000000000 menu
/var/folders/68/n33lqcg953z5y1x0pvkj58xc0000gn/T//ccEgjW3d.s:367    .text.menu:000000000000009c $d
/var/folders/68/n33lqcg953z5y1x0pvkj58xc0000gn/T//ccEgjW3d.s:374    .text.set_motor_speed:0000000000000000 $t
/var/folders/68/n33lqcg953z5y1x0pvkj58xc0000gn/T//ccEgjW3d.s:379    .text.set_motor_speed:0000000000000000 set_motor_speed
/var/folders/68/n33lqcg953z5y1x0pvkj58xc0000gn/T//ccEgjW3d.s:445    .text.set_motor_speed:000000000000004c $d
/var/folders/68/n33lqcg953z5y1x0pvkj58xc0000gn/T//ccEgjW3d.s:452    .text.turn:0000000000000000 $t
/var/folders/68/n33lqcg953z5y1x0pvkj58xc0000gn/T//ccEgjW3d.s:457    .text.turn:0000000000000000 turn
/var/folders/68/n33lqcg953z5y1x0pvkj58xc0000gn/T//ccEgjW3d.s:702    .text.turn:0000000000000178 $d
/var/folders/68/n33lqcg953z5y1x0pvkj58xc0000gn/T//ccEgjW3d.s:725    .text.turn_deg:0000000000000000 $t
/var/folders/68/n33lqcg953z5y1x0pvkj58xc0000gn/T//ccEgjW3d.s:730    .text.turn_deg:0000000000000000 turn_deg
/var/folders/68/n33lqcg953z5y1x0pvkj58xc0000gn/T//ccEgjW3d.s:856    .text.turn_deg:00000000000000b0 $d
/var/folders/68/n33lqcg953z5y1x0pvkj58xc0000gn/T//ccEgjW3d.s:868    .text.encoder_pid:0000000000000000 $t
/var/folders/68/n33lqcg953z5y1x0pvkj58xc0000gn/T//ccEgjW3d.s:873    .text.encoder_pid:0000000000000000 encoder_pid
/var/folders/68/n33lqcg953z5y1x0pvkj58xc0000gn/T//ccEgjW3d.s:1000   .text.encoder_pid:00000000000000a0 $d
/var/folders/68/n33lqcg953z5y1x0pvkj58xc0000gn/T//ccEgjW3d.s:1009   .text._Error_Handler:0000000000000000 $t
/var/folders/68/n33lqcg953z5y1x0pvkj58xc0000gn/T//ccEgjW3d.s:1014   .text._Error_Handler:0000000000000000 _Error_Handler
/var/folders/68/n33lqcg953z5y1x0pvkj58xc0000gn/T//ccEgjW3d.s:1030   .text.SystemClock_Config:0000000000000000 $t
/var/folders/68/n33lqcg953z5y1x0pvkj58xc0000gn/T//ccEgjW3d.s:1035   .text.SystemClock_Config:0000000000000000 SystemClock_Config
/var/folders/68/n33lqcg953z5y1x0pvkj58xc0000gn/T//ccEgjW3d.s:1161   .text.SystemClock_Config:00000000000000b4 $d
/var/folders/68/n33lqcg953z5y1x0pvkj58xc0000gn/T//ccEgjW3d.s:1169   .text.main:0000000000000000 $t
/var/folders/68/n33lqcg953z5y1x0pvkj58xc0000gn/T//ccEgjW3d.s:1174   .text.main:0000000000000000 main
/var/folders/68/n33lqcg953z5y1x0pvkj58xc0000gn/T//ccEgjW3d.s:1321   .text.main:00000000000000c8 $d
/var/folders/68/n33lqcg953z5y1x0pvkj58xc0000gn/T//ccEgjW3d.s:1340   .data.RIGHT_SPEED:0000000000000000 RIGHT_SPEED
/var/folders/68/n33lqcg953z5y1x0pvkj58xc0000gn/T//ccEgjW3d.s:1347   .data.LEFT_SPEED:0000000000000000 LEFT_SPEED
/var/folders/68/n33lqcg953z5y1x0pvkj58xc0000gn/T//ccEgjW3d.s:1336   .data.RIGHT_SPEED:0000000000000000 $d
/var/folders/68/n33lqcg953z5y1x0pvkj58xc0000gn/T//ccEgjW3d.s:1343   .data.LEFT_SPEED:0000000000000000 $d
/var/folders/68/n33lqcg953z5y1x0pvkj58xc0000gn/T//ccEgjW3d.s:1350   .rodata.str1.4:0000000000000000 $d
                     .debug_frame:0000000000000010 $d

UNDEFINED SYMBOLS
memcpy
__aeabi_ui2d
__aeabi_dmul
__aeabi_dsub
__aeabi_d2f
__aeabi_dcmplt
__aeabi_dcmpgt
HAL_ADC_Start_DMA
HAL_Delay
goertzel
ARM GAS  /var/folders/68/n33lqcg953z5y1x0pvkj58xc0000gn/T//ccEgjW3d.s 			page 40


HAL_ADC_Stop_DMA
hadc1
IR_INT_STATE
ssd1306_Fill
ssd1306_SetCursor
ssd1306_WriteString
ssd1306_UpdateScreen
Font_7x10
HAL_GPIO_ReadPin
sprintf
pid_Init
htim1
__aeabi_f2d
__aeabi_d2uiz
__aeabi_i2d
__aeabi_dadd
pid_GetGain
HAL_RCC_OscConfig
HAL_RCC_ClockConfig
HAL_RCC_GetHCLKFreq
HAL_SYSTICK_Config
HAL_SYSTICK_CLKSourceConfig
HAL_NVIC_SetPriority
HAL_Init
MX_GPIO_Init
MX_DMA_Init
MX_TIM3_Init
MX_TIM1_Init
MX_TIM2_Init
MX_USART6_UART_Init
MX_ADC1_Init
MX_I2C1_Init
MX_TIM4_Init
MX_TIM9_Init
MX_TIM5_Init
HAL_TIM_Encoder_Start
HAL_TIM_PWM_Start
ssd1306_Init
HAL_NVIC_DisableIRQ
htim4
htim5
htim3
