ARM GAS  /var/folders/ck/4xtm3skj1ssb0w4rn7_4q_gw0000gn/T//cc96rVB0.s 			page 1


   1              		.syntax unified
   2              		.cpu cortex-m4
   3              		.eabi_attribute 27, 1
   4              		.eabi_attribute 28, 1
   5              		.fpu fpv4-sp-d16
   6              		.eabi_attribute 20, 1
   7              		.eabi_attribute 21, 1
   8              		.eabi_attribute 23, 3
   9              		.eabi_attribute 24, 1
  10              		.eabi_attribute 25, 1
  11              		.eabi_attribute 26, 1
  12              		.eabi_attribute 30, 1
  13              		.eabi_attribute 34, 1
  14              		.eabi_attribute 18, 4
  15              		.thumb
  16              		.file	"main.c"
  17              		.text
  18              	.Ltext0:
  19              		.cfi_sections	.debug_frame
  20              		.section	.text.MX_GPIO_Init,"ax",%progbits
  21              		.align	2
  22              		.thumb
  23              		.thumb_func
  25              	MX_GPIO_Init:
  26              	.LFB126:
  27              		.file 1 "Src/main.c"
   1:Src/main.c    **** 
   2:Src/main.c    **** /**
   3:Src/main.c    ****   ******************************************************************************
   4:Src/main.c    ****   * @file           : main.c
   5:Src/main.c    ****   * @brief          : Main program body
   6:Src/main.c    ****   ******************************************************************************
   7:Src/main.c    ****   ** This notice applies to any and all portions of this file
   8:Src/main.c    ****   * that are not between comment pairs USER CODE BEGIN and
   9:Src/main.c    ****   * USER CODE END. Other portions of this file, whether 
  10:Src/main.c    ****   * inserted by the user or by software development tools
  11:Src/main.c    ****   * are owned by their respective copyright owners.
  12:Src/main.c    ****   *
  13:Src/main.c    ****   * COPYRIGHT(c) 2018 STMicroelectronics
  14:Src/main.c    ****   *
  15:Src/main.c    ****   * Redistribution and use in source and binary forms, with or without modification,
  16:Src/main.c    ****   * are permitted provided that the following conditions are met:
  17:Src/main.c    ****   *   1. Redistributions of source code must retain the above copyright notice,
  18:Src/main.c    ****   *      this list of conditions and the following disclaimer.
  19:Src/main.c    ****   *   2. Redistributions in binary form must reproduce the above copyright notice,
  20:Src/main.c    ****   *      this list of conditions and the following disclaimer in the documentation
  21:Src/main.c    ****   *      and/or other materials provided with the distribution.
  22:Src/main.c    ****   *   3. Neither the name of STMicroelectronics nor the names of its contributors
  23:Src/main.c    ****   *      may be used to endorse or promote products derived from this software
  24:Src/main.c    ****   *      without specific prior written permission.
  25:Src/main.c    ****   *
  26:Src/main.c    ****   * THIS SOFTWARE IS PROVIDED BY THE COPYRIGHT HOLDERS AND CONTRIBUTORS "AS IS"
  27:Src/main.c    ****   * AND ANY EXPRESS OR IMPLIED WARRANTIES, INCLUDING, BUT NOT LIMITED TO, THE
  28:Src/main.c    ****   * IMPLIED WARRANTIES OF MERCHANTABILITY AND FITNESS FOR A PARTICULAR PURPOSE ARE
  29:Src/main.c    ****   * DISCLAIMED. IN NO EVENT SHALL THE COPYRIGHT HOLDER OR CONTRIBUTORS BE LIABLE
  30:Src/main.c    ****   * FOR ANY DIRECT, INDIRECT, INCIDENTAL, SPECIAL, EXEMPLARY, OR CONSEQUENTIAL
  31:Src/main.c    ****   * DAMAGES (INCLUDING, BUT NOT LIMITED TO, PROCUREMENT OF SUBSTITUTE GOODS OR
ARM GAS  /var/folders/ck/4xtm3skj1ssb0w4rn7_4q_gw0000gn/T//cc96rVB0.s 			page 2


  32:Src/main.c    ****   * SERVICES; LOSS OF USE, DATA, OR PROFITS; OR BUSINESS INTERRUPTION) HOWEVER
  33:Src/main.c    ****   * CAUSED AND ON ANY THEORY OF LIABILITY, WHETHER IN CONTRACT, STRICT LIABILITY,
  34:Src/main.c    ****   * OR TORT (INCLUDING NEGLIGENCE OR OTHERWISE) ARISING IN ANY WAY OUT OF THE USE
  35:Src/main.c    ****   * OF THIS SOFTWARE, EVEN IF ADVISED OF THE POSSIBILITY OF SUCH DAMAGE.
  36:Src/main.c    ****   *
  37:Src/main.c    ****   ******************************************************************************
  38:Src/main.c    ****   */
  39:Src/main.c    **** /* Includes ------------------------------------------------------------------*/
  40:Src/main.c    **** #include "main.h"
  41:Src/main.c    **** #include "stm32f4xx_hal.h"
  42:Src/main.c    **** 
  43:Src/main.c    **** /* USER CODE BEGIN Includes */
  44:Src/main.c    **** 
  45:Src/main.c    **** /* USER CODE END Includes */
  46:Src/main.c    **** 
  47:Src/main.c    **** /* Private variables ---------------------------------------------------------*/
  48:Src/main.c    **** TIM_HandleTypeDef htim1;
  49:Src/main.c    **** 
  50:Src/main.c    **** /* USER CODE BEGIN PV */
  51:Src/main.c    **** /* Private variables ---------------------------------------------------------*/
  52:Src/main.c    **** 
  53:Src/main.c    **** /* USER CODE END PV */
  54:Src/main.c    **** 
  55:Src/main.c    **** /* Private function prototypes -----------------------------------------------*/
  56:Src/main.c    **** void SystemClock_Config(void);
  57:Src/main.c    **** static void MX_GPIO_Init(void);
  58:Src/main.c    **** static void MX_TIM1_Init(void);                                    
  59:Src/main.c    **** void HAL_TIM_MspPostInit(TIM_HandleTypeDef *htim);
  60:Src/main.c    ****                                 
  61:Src/main.c    **** 
  62:Src/main.c    **** /* USER CODE BEGIN PFP */
  63:Src/main.c    **** /* Private function prototypes -----------------------------------------------*/
  64:Src/main.c    **** 
  65:Src/main.c    **** /* USER CODE END PFP */
  66:Src/main.c    **** 
  67:Src/main.c    **** /* USER CODE BEGIN 0 */
  68:Src/main.c    **** 
  69:Src/main.c    **** /* USER CODE END 0 */
  70:Src/main.c    **** 
  71:Src/main.c    **** /**
  72:Src/main.c    ****   * @brief  The application entry point.
  73:Src/main.c    ****   *
  74:Src/main.c    ****   * @retval None
  75:Src/main.c    ****   */
  76:Src/main.c    **** int main(void)
  77:Src/main.c    **** {
  78:Src/main.c    ****   /* USER CODE BEGIN 1 */
  79:Src/main.c    **** 
  80:Src/main.c    ****   /* USER CODE END 1 */
  81:Src/main.c    **** 
  82:Src/main.c    ****   /* MCU Configuration----------------------------------------------------------*/
  83:Src/main.c    **** 
  84:Src/main.c    ****   /* Reset of all peripherals, Initializes the Flash interface and the Systick. */
  85:Src/main.c    ****   HAL_Init();
  86:Src/main.c    **** 
  87:Src/main.c    ****   /* USER CODE BEGIN Init */
  88:Src/main.c    **** 
ARM GAS  /var/folders/ck/4xtm3skj1ssb0w4rn7_4q_gw0000gn/T//cc96rVB0.s 			page 3


  89:Src/main.c    ****   /* USER CODE END Init */
  90:Src/main.c    **** 
  91:Src/main.c    ****   /* Configure the system clock */
  92:Src/main.c    ****   SystemClock_Config();
  93:Src/main.c    **** 
  94:Src/main.c    ****   /* USER CODE BEGIN SysInit */
  95:Src/main.c    **** 
  96:Src/main.c    ****   /* USER CODE END SysInit */
  97:Src/main.c    **** 
  98:Src/main.c    ****   /* Initialize all configured peripherals */
  99:Src/main.c    ****   MX_GPIO_Init();
 100:Src/main.c    ****   MX_TIM1_Init();
 101:Src/main.c    ****   /* USER CODE BEGIN 2 */
 102:Src/main.c    **** 
 103:Src/main.c    ****   // Initialization of PWM
 104:Src/main.c    ****   // HAL_TIM_PWM_Start(&htim1, TIM_CHANNEL_1);
 105:Src/main.c    ****   // HAL_TIM_PWM_Stop(&htim1, TIM_CHANNEL_1);
 106:Src/main.c    **** 
 107:Src/main.c    ****   // __HAL_TIM_SET_COMPARE(&htim1, TIM_CHANNEL_1, 5000);
 108:Src/main.c    ****   HAL_TIM_PWM_Start(&htim1, TIM_CHANNEL_1);
 109:Src/main.c    ****   /* USER CODE END 2 */
 110:Src/main.c    **** 
 111:Src/main.c    ****   /* Infinite loop */
 112:Src/main.c    ****   /* USER CODE BEGIN WHILE */
 113:Src/main.c    ****   while (1)
 114:Src/main.c    ****   {
 115:Src/main.c    ****     __HAL_TIM_SET_COMPARE(&htim1, TIM_CHANNEL_1, 2000 * 0.05);
 116:Src/main.c    ****     HAL_Delay(1000);
 117:Src/main.c    ****     __HAL_TIM_SET_COMPARE(&htim1, TIM_CHANNEL_1, 2000 * 0.1);
 118:Src/main.c    ****     HAL_Delay(1000);
 119:Src/main.c    ****   /* USER CODE END WHILE */
 120:Src/main.c    **** 
 121:Src/main.c    ****   /* USER CODE BEGIN 3 */
 122:Src/main.c    **** 
 123:Src/main.c    ****   }
 124:Src/main.c    ****   /* USER CODE END 3 */
 125:Src/main.c    **** 
 126:Src/main.c    **** }
 127:Src/main.c    **** 
 128:Src/main.c    **** /**
 129:Src/main.c    ****   * @brief System Clock Configuration
 130:Src/main.c    ****   * @retval None
 131:Src/main.c    ****   */
 132:Src/main.c    **** void SystemClock_Config(void)
 133:Src/main.c    **** {
 134:Src/main.c    **** 
 135:Src/main.c    ****   RCC_OscInitTypeDef RCC_OscInitStruct;
 136:Src/main.c    ****   RCC_ClkInitTypeDef RCC_ClkInitStruct;
 137:Src/main.c    **** 
 138:Src/main.c    ****     /**Configure the main internal regulator output voltage 
 139:Src/main.c    ****     */
 140:Src/main.c    ****   __HAL_RCC_PWR_CLK_ENABLE();
 141:Src/main.c    **** 
 142:Src/main.c    ****   __HAL_PWR_VOLTAGESCALING_CONFIG(PWR_REGULATOR_VOLTAGE_SCALE2);
 143:Src/main.c    **** 
 144:Src/main.c    ****     /**Initializes the CPU, AHB and APB busses clocks 
 145:Src/main.c    ****     */
ARM GAS  /var/folders/ck/4xtm3skj1ssb0w4rn7_4q_gw0000gn/T//cc96rVB0.s 			page 4


 146:Src/main.c    ****   RCC_OscInitStruct.OscillatorType = RCC_OSCILLATORTYPE_HSI;
 147:Src/main.c    ****   RCC_OscInitStruct.HSIState = RCC_HSI_ON;
 148:Src/main.c    ****   RCC_OscInitStruct.HSICalibrationValue = 16;
 149:Src/main.c    ****   RCC_OscInitStruct.PLL.PLLState = RCC_PLL_ON;
 150:Src/main.c    ****   RCC_OscInitStruct.PLL.PLLSource = RCC_PLLSOURCE_HSI;
 151:Src/main.c    ****   RCC_OscInitStruct.PLL.PLLM = 8;
 152:Src/main.c    ****   RCC_OscInitStruct.PLL.PLLN = 84;
 153:Src/main.c    ****   RCC_OscInitStruct.PLL.PLLP = RCC_PLLP_DIV2;
 154:Src/main.c    ****   RCC_OscInitStruct.PLL.PLLQ = 4;
 155:Src/main.c    ****   if (HAL_RCC_OscConfig(&RCC_OscInitStruct) != HAL_OK)
 156:Src/main.c    ****   {
 157:Src/main.c    ****     _Error_Handler(__FILE__, __LINE__);
 158:Src/main.c    ****   }
 159:Src/main.c    **** 
 160:Src/main.c    ****     /**Initializes the CPU, AHB and APB busses clocks 
 161:Src/main.c    ****     */
 162:Src/main.c    ****   RCC_ClkInitStruct.ClockType = RCC_CLOCKTYPE_HCLK|RCC_CLOCKTYPE_SYSCLK
 163:Src/main.c    ****                               |RCC_CLOCKTYPE_PCLK1|RCC_CLOCKTYPE_PCLK2;
 164:Src/main.c    ****   RCC_ClkInitStruct.SYSCLKSource = RCC_SYSCLKSOURCE_PLLCLK;
 165:Src/main.c    ****   RCC_ClkInitStruct.AHBCLKDivider = RCC_SYSCLK_DIV1;
 166:Src/main.c    ****   RCC_ClkInitStruct.APB1CLKDivider = RCC_HCLK_DIV2;
 167:Src/main.c    ****   RCC_ClkInitStruct.APB2CLKDivider = RCC_HCLK_DIV1;
 168:Src/main.c    **** 
 169:Src/main.c    ****   if (HAL_RCC_ClockConfig(&RCC_ClkInitStruct, FLASH_LATENCY_2) != HAL_OK)
 170:Src/main.c    ****   {
 171:Src/main.c    ****     _Error_Handler(__FILE__, __LINE__);
 172:Src/main.c    ****   }
 173:Src/main.c    **** 
 174:Src/main.c    ****     /**Configure the Systick interrupt time 
 175:Src/main.c    ****     */
 176:Src/main.c    ****   HAL_SYSTICK_Config(HAL_RCC_GetHCLKFreq()/1000);
 177:Src/main.c    **** 
 178:Src/main.c    ****     /**Configure the Systick 
 179:Src/main.c    ****     */
 180:Src/main.c    ****   HAL_SYSTICK_CLKSourceConfig(SYSTICK_CLKSOURCE_HCLK);
 181:Src/main.c    **** 
 182:Src/main.c    ****   /* SysTick_IRQn interrupt configuration */
 183:Src/main.c    ****   HAL_NVIC_SetPriority(SysTick_IRQn, 0, 0);
 184:Src/main.c    **** }
 185:Src/main.c    **** 
 186:Src/main.c    **** /* TIM1 init function */
 187:Src/main.c    **** static void MX_TIM1_Init(void)
 188:Src/main.c    **** {
 189:Src/main.c    **** 
 190:Src/main.c    ****   TIM_ClockConfigTypeDef sClockSourceConfig;
 191:Src/main.c    ****   TIM_MasterConfigTypeDef sMasterConfig;
 192:Src/main.c    ****   TIM_OC_InitTypeDef sConfigOC;
 193:Src/main.c    ****   TIM_BreakDeadTimeConfigTypeDef sBreakDeadTimeConfig;
 194:Src/main.c    **** 
 195:Src/main.c    ****   htim1.Instance = TIM1;
 196:Src/main.c    ****   htim1.Init.Prescaler = 840;
 197:Src/main.c    ****   htim1.Init.CounterMode = TIM_COUNTERMODE_UP;
 198:Src/main.c    ****   htim1.Init.Period = 2000;
 199:Src/main.c    ****   htim1.Init.ClockDivision = TIM_CLOCKDIVISION_DIV1;
 200:Src/main.c    ****   htim1.Init.RepetitionCounter = 0;
 201:Src/main.c    ****   if (HAL_TIM_Base_Init(&htim1) != HAL_OK)
 202:Src/main.c    ****   {
ARM GAS  /var/folders/ck/4xtm3skj1ssb0w4rn7_4q_gw0000gn/T//cc96rVB0.s 			page 5


 203:Src/main.c    ****     _Error_Handler(__FILE__, __LINE__);
 204:Src/main.c    ****   }
 205:Src/main.c    **** 
 206:Src/main.c    ****   sClockSourceConfig.ClockSource = TIM_CLOCKSOURCE_INTERNAL;
 207:Src/main.c    ****   if (HAL_TIM_ConfigClockSource(&htim1, &sClockSourceConfig) != HAL_OK)
 208:Src/main.c    ****   {
 209:Src/main.c    ****     _Error_Handler(__FILE__, __LINE__);
 210:Src/main.c    ****   }
 211:Src/main.c    **** 
 212:Src/main.c    ****   if (HAL_TIM_PWM_Init(&htim1) != HAL_OK)
 213:Src/main.c    ****   {
 214:Src/main.c    ****     _Error_Handler(__FILE__, __LINE__);
 215:Src/main.c    ****   }
 216:Src/main.c    **** 
 217:Src/main.c    ****   sMasterConfig.MasterOutputTrigger = TIM_TRGO_RESET;
 218:Src/main.c    ****   sMasterConfig.MasterSlaveMode = TIM_MASTERSLAVEMODE_DISABLE;
 219:Src/main.c    ****   if (HAL_TIMEx_MasterConfigSynchronization(&htim1, &sMasterConfig) != HAL_OK)
 220:Src/main.c    ****   {
 221:Src/main.c    ****     _Error_Handler(__FILE__, __LINE__);
 222:Src/main.c    ****   }
 223:Src/main.c    **** 
 224:Src/main.c    ****   sConfigOC.OCMode = TIM_OCMODE_PWM1;
 225:Src/main.c    ****   sConfigOC.Pulse = 1000;
 226:Src/main.c    ****   sConfigOC.OCPolarity = TIM_OCPOLARITY_HIGH;
 227:Src/main.c    ****   sConfigOC.OCNPolarity = TIM_OCNPOLARITY_HIGH;
 228:Src/main.c    ****   sConfigOC.OCFastMode = TIM_OCFAST_DISABLE;
 229:Src/main.c    ****   sConfigOC.OCIdleState = TIM_OCIDLESTATE_RESET;
 230:Src/main.c    ****   sConfigOC.OCNIdleState = TIM_OCNIDLESTATE_RESET;
 231:Src/main.c    ****   if (HAL_TIM_PWM_ConfigChannel(&htim1, &sConfigOC, TIM_CHANNEL_1) != HAL_OK)
 232:Src/main.c    ****   {
 233:Src/main.c    ****     _Error_Handler(__FILE__, __LINE__);
 234:Src/main.c    ****   }
 235:Src/main.c    **** 
 236:Src/main.c    ****   sBreakDeadTimeConfig.OffStateRunMode = TIM_OSSR_DISABLE;
 237:Src/main.c    ****   sBreakDeadTimeConfig.OffStateIDLEMode = TIM_OSSI_DISABLE;
 238:Src/main.c    ****   sBreakDeadTimeConfig.LockLevel = TIM_LOCKLEVEL_OFF;
 239:Src/main.c    ****   sBreakDeadTimeConfig.DeadTime = 0;
 240:Src/main.c    ****   sBreakDeadTimeConfig.BreakState = TIM_BREAK_DISABLE;
 241:Src/main.c    ****   sBreakDeadTimeConfig.BreakPolarity = TIM_BREAKPOLARITY_HIGH;
 242:Src/main.c    ****   sBreakDeadTimeConfig.AutomaticOutput = TIM_AUTOMATICOUTPUT_DISABLE;
 243:Src/main.c    ****   if (HAL_TIMEx_ConfigBreakDeadTime(&htim1, &sBreakDeadTimeConfig) != HAL_OK)
 244:Src/main.c    ****   {
 245:Src/main.c    ****     _Error_Handler(__FILE__, __LINE__);
 246:Src/main.c    ****   }
 247:Src/main.c    **** 
 248:Src/main.c    ****   HAL_TIM_MspPostInit(&htim1);
 249:Src/main.c    **** 
 250:Src/main.c    **** }
 251:Src/main.c    **** 
 252:Src/main.c    **** /** Pinout Configuration
 253:Src/main.c    **** */
 254:Src/main.c    **** static void MX_GPIO_Init(void)
 255:Src/main.c    **** {
  28              		.loc 1 255 0
  29              		.cfi_startproc
  30              		@ args = 0, pretend = 0, frame = 8
  31              		@ frame_needed = 0, uses_anonymous_args = 0
ARM GAS  /var/folders/ck/4xtm3skj1ssb0w4rn7_4q_gw0000gn/T//cc96rVB0.s 			page 6


  32              		@ link register save eliminated.
  33 0000 82B0     		sub	sp, sp, #8
  34              	.LCFI0:
  35              		.cfi_def_cfa_offset 8
  36              	.LBB2:
 256:Src/main.c    **** 
 257:Src/main.c    ****   /* GPIO Ports Clock Enable */
 258:Src/main.c    ****   __HAL_RCC_GPIOA_CLK_ENABLE();
  37              		.loc 1 258 0
  38 0002 0023     		movs	r3, #0
  39 0004 0193     		str	r3, [sp, #4]
  40 0006 064B     		ldr	r3, .L3
  41 0008 1A6B     		ldr	r2, [r3, #48]
  42 000a 42F00102 		orr	r2, r2, #1
  43 000e 1A63     		str	r2, [r3, #48]
  44 0010 1B6B     		ldr	r3, [r3, #48]
  45 0012 03F00103 		and	r3, r3, #1
  46 0016 0193     		str	r3, [sp, #4]
  47 0018 019B     		ldr	r3, [sp, #4]
  48              	.LBE2:
 259:Src/main.c    **** 
 260:Src/main.c    **** }
  49              		.loc 1 260 0
  50 001a 02B0     		add	sp, sp, #8
  51              	.LCFI1:
  52              		.cfi_def_cfa_offset 0
  53              		@ sp needed
  54 001c 7047     		bx	lr
  55              	.L4:
  56 001e 00BF     		.align	2
  57              	.L3:
  58 0020 00380240 		.word	1073887232
  59              		.cfi_endproc
  60              	.LFE126:
  62              		.section	.text._Error_Handler,"ax",%progbits
  63              		.align	2
  64              		.global	_Error_Handler
  65              		.thumb
  66              		.thumb_func
  68              	_Error_Handler:
  69              	.LFB127:
 261:Src/main.c    **** 
 262:Src/main.c    **** /* USER CODE BEGIN 4 */
 263:Src/main.c    **** 
 264:Src/main.c    **** /* USER CODE END 4 */
 265:Src/main.c    **** 
 266:Src/main.c    **** /**
 267:Src/main.c    ****   * @brief  This function is executed in case of error occurrence.
 268:Src/main.c    ****   * @param  file: The file name as string.
 269:Src/main.c    ****   * @param  line: The line in file as a number.
 270:Src/main.c    ****   * @retval None
 271:Src/main.c    ****   */
 272:Src/main.c    **** void _Error_Handler(char *file, int line)
 273:Src/main.c    **** {
  70              		.loc 1 273 0
  71              		.cfi_startproc
  72              		@ Volatile: function does not return.
ARM GAS  /var/folders/ck/4xtm3skj1ssb0w4rn7_4q_gw0000gn/T//cc96rVB0.s 			page 7


  73              		@ args = 0, pretend = 0, frame = 0
  74              		@ frame_needed = 0, uses_anonymous_args = 0
  75              		@ link register save eliminated.
  76              	.LVL0:
  77              	.L6:
 274:Src/main.c    ****   /* USER CODE BEGIN Error_Handler_Debug */
 275:Src/main.c    ****   /* User can add his own implementation to report the HAL error return state */
 276:Src/main.c    ****   while(1)
 277:Src/main.c    ****   {
 278:Src/main.c    ****   }
  78              		.loc 1 278 0 discriminator 1
  79 0000 FEE7     		b	.L6
  80              		.cfi_endproc
  81              	.LFE127:
  83 0002 00BF     		.section	.text.MX_TIM1_Init,"ax",%progbits
  84              		.align	2
  85              		.thumb
  86              		.thumb_func
  88              	MX_TIM1_Init:
  89              	.LFB125:
 188:Src/main.c    **** 
  90              		.loc 1 188 0
  91              		.cfi_startproc
  92              		@ args = 0, pretend = 0, frame = 80
  93              		@ frame_needed = 0, uses_anonymous_args = 0
  94 0000 00B5     		push	{lr}
  95              	.LCFI2:
  96              		.cfi_def_cfa_offset 4
  97              		.cfi_offset 14, -4
  98 0002 95B0     		sub	sp, sp, #84
  99              	.LCFI3:
 100              		.cfi_def_cfa_offset 88
 195:Src/main.c    ****   htim1.Init.Prescaler = 840;
 101              		.loc 1 195 0
 102 0004 3048     		ldr	r0, .L15
 103 0006 314B     		ldr	r3, .L15+4
 104 0008 0360     		str	r3, [r0]
 196:Src/main.c    ****   htim1.Init.CounterMode = TIM_COUNTERMODE_UP;
 105              		.loc 1 196 0
 106 000a 4FF45273 		mov	r3, #840
 107 000e 4360     		str	r3, [r0, #4]
 197:Src/main.c    ****   htim1.Init.Period = 2000;
 108              		.loc 1 197 0
 109 0010 0023     		movs	r3, #0
 110 0012 8360     		str	r3, [r0, #8]
 198:Src/main.c    ****   htim1.Init.ClockDivision = TIM_CLOCKDIVISION_DIV1;
 111              		.loc 1 198 0
 112 0014 4FF4FA62 		mov	r2, #2000
 113 0018 C260     		str	r2, [r0, #12]
 199:Src/main.c    ****   htim1.Init.RepetitionCounter = 0;
 114              		.loc 1 199 0
 115 001a 0361     		str	r3, [r0, #16]
 200:Src/main.c    ****   if (HAL_TIM_Base_Init(&htim1) != HAL_OK)
 116              		.loc 1 200 0
 117 001c 4361     		str	r3, [r0, #20]
 201:Src/main.c    ****   {
 118              		.loc 1 201 0
ARM GAS  /var/folders/ck/4xtm3skj1ssb0w4rn7_4q_gw0000gn/T//cc96rVB0.s 			page 8


 119 001e FFF7FEFF 		bl	HAL_TIM_Base_Init
 120              	.LVL1:
 121 0022 18B1     		cbz	r0, .L8
 203:Src/main.c    ****   }
 122              		.loc 1 203 0
 123 0024 2A48     		ldr	r0, .L15+8
 124 0026 CB21     		movs	r1, #203
 125 0028 FFF7FEFF 		bl	_Error_Handler
 126              	.LVL2:
 127              	.L8:
 206:Src/main.c    ****   if (HAL_TIM_ConfigClockSource(&htim1, &sClockSourceConfig) != HAL_OK)
 128              		.loc 1 206 0
 129 002c 14A9     		add	r1, sp, #80
 130 002e 4FF48053 		mov	r3, #4096
 131 0032 41F8103D 		str	r3, [r1, #-16]!
 207:Src/main.c    ****   {
 132              		.loc 1 207 0
 133 0036 2448     		ldr	r0, .L15
 134 0038 FFF7FEFF 		bl	HAL_TIM_ConfigClockSource
 135              	.LVL3:
 136 003c 18B1     		cbz	r0, .L9
 209:Src/main.c    ****   }
 137              		.loc 1 209 0
 138 003e 2448     		ldr	r0, .L15+8
 139 0040 D121     		movs	r1, #209
 140 0042 FFF7FEFF 		bl	_Error_Handler
 141              	.LVL4:
 142              	.L9:
 212:Src/main.c    ****   {
 143              		.loc 1 212 0
 144 0046 2048     		ldr	r0, .L15
 145 0048 FFF7FEFF 		bl	HAL_TIM_PWM_Init
 146              	.LVL5:
 147 004c 18B1     		cbz	r0, .L10
 214:Src/main.c    ****   }
 148              		.loc 1 214 0
 149 004e 2048     		ldr	r0, .L15+8
 150 0050 D621     		movs	r1, #214
 151 0052 FFF7FEFF 		bl	_Error_Handler
 152              	.LVL6:
 153              	.L10:
 217:Src/main.c    ****   sMasterConfig.MasterSlaveMode = TIM_MASTERSLAVEMODE_DISABLE;
 154              		.loc 1 217 0
 155 0056 0023     		movs	r3, #0
 156 0058 0E93     		str	r3, [sp, #56]
 218:Src/main.c    ****   if (HAL_TIMEx_MasterConfigSynchronization(&htim1, &sMasterConfig) != HAL_OK)
 157              		.loc 1 218 0
 158 005a 0F93     		str	r3, [sp, #60]
 219:Src/main.c    ****   {
 159              		.loc 1 219 0
 160 005c 1A48     		ldr	r0, .L15
 161 005e 0EA9     		add	r1, sp, #56
 162 0060 FFF7FEFF 		bl	HAL_TIMEx_MasterConfigSynchronization
 163              	.LVL7:
 164 0064 18B1     		cbz	r0, .L11
 221:Src/main.c    ****   }
 165              		.loc 1 221 0
ARM GAS  /var/folders/ck/4xtm3skj1ssb0w4rn7_4q_gw0000gn/T//cc96rVB0.s 			page 9


 166 0066 1A48     		ldr	r0, .L15+8
 167 0068 DD21     		movs	r1, #221
 168 006a FFF7FEFF 		bl	_Error_Handler
 169              	.LVL8:
 170              	.L11:
 224:Src/main.c    ****   sConfigOC.Pulse = 1000;
 171              		.loc 1 224 0
 172 006e 6023     		movs	r3, #96
 173 0070 0793     		str	r3, [sp, #28]
 225:Src/main.c    ****   sConfigOC.OCPolarity = TIM_OCPOLARITY_HIGH;
 174              		.loc 1 225 0
 175 0072 4FF47A73 		mov	r3, #1000
 176 0076 0893     		str	r3, [sp, #32]
 226:Src/main.c    ****   sConfigOC.OCNPolarity = TIM_OCNPOLARITY_HIGH;
 177              		.loc 1 226 0
 178 0078 0022     		movs	r2, #0
 179 007a 0992     		str	r2, [sp, #36]
 227:Src/main.c    ****   sConfigOC.OCFastMode = TIM_OCFAST_DISABLE;
 180              		.loc 1 227 0
 181 007c 0A92     		str	r2, [sp, #40]
 228:Src/main.c    ****   sConfigOC.OCIdleState = TIM_OCIDLESTATE_RESET;
 182              		.loc 1 228 0
 183 007e 0B92     		str	r2, [sp, #44]
 229:Src/main.c    ****   sConfigOC.OCNIdleState = TIM_OCNIDLESTATE_RESET;
 184              		.loc 1 229 0
 185 0080 0C92     		str	r2, [sp, #48]
 230:Src/main.c    ****   if (HAL_TIM_PWM_ConfigChannel(&htim1, &sConfigOC, TIM_CHANNEL_1) != HAL_OK)
 186              		.loc 1 230 0
 187 0082 0D92     		str	r2, [sp, #52]
 231:Src/main.c    ****   {
 188              		.loc 1 231 0
 189 0084 1048     		ldr	r0, .L15
 190 0086 07A9     		add	r1, sp, #28
 191 0088 FFF7FEFF 		bl	HAL_TIM_PWM_ConfigChannel
 192              	.LVL9:
 193 008c 18B1     		cbz	r0, .L12
 233:Src/main.c    ****   }
 194              		.loc 1 233 0
 195 008e 1048     		ldr	r0, .L15+8
 196 0090 E921     		movs	r1, #233
 197 0092 FFF7FEFF 		bl	_Error_Handler
 198              	.LVL10:
 199              	.L12:
 236:Src/main.c    ****   sBreakDeadTimeConfig.OffStateIDLEMode = TIM_OSSI_DISABLE;
 200              		.loc 1 236 0
 201 0096 0023     		movs	r3, #0
 202 0098 0093     		str	r3, [sp]
 237:Src/main.c    ****   sBreakDeadTimeConfig.LockLevel = TIM_LOCKLEVEL_OFF;
 203              		.loc 1 237 0
 204 009a 0193     		str	r3, [sp, #4]
 238:Src/main.c    ****   sBreakDeadTimeConfig.DeadTime = 0;
 205              		.loc 1 238 0
 206 009c 0293     		str	r3, [sp, #8]
 239:Src/main.c    ****   sBreakDeadTimeConfig.BreakState = TIM_BREAK_DISABLE;
 207              		.loc 1 239 0
 208 009e 0393     		str	r3, [sp, #12]
 240:Src/main.c    ****   sBreakDeadTimeConfig.BreakPolarity = TIM_BREAKPOLARITY_HIGH;
ARM GAS  /var/folders/ck/4xtm3skj1ssb0w4rn7_4q_gw0000gn/T//cc96rVB0.s 			page 10


 209              		.loc 1 240 0
 210 00a0 0493     		str	r3, [sp, #16]
 241:Src/main.c    ****   sBreakDeadTimeConfig.AutomaticOutput = TIM_AUTOMATICOUTPUT_DISABLE;
 211              		.loc 1 241 0
 212 00a2 4FF40052 		mov	r2, #8192
 213 00a6 0592     		str	r2, [sp, #20]
 242:Src/main.c    ****   if (HAL_TIMEx_ConfigBreakDeadTime(&htim1, &sBreakDeadTimeConfig) != HAL_OK)
 214              		.loc 1 242 0
 215 00a8 0693     		str	r3, [sp, #24]
 243:Src/main.c    ****   {
 216              		.loc 1 243 0
 217 00aa 0748     		ldr	r0, .L15
 218 00ac 6946     		mov	r1, sp
 219 00ae FFF7FEFF 		bl	HAL_TIMEx_ConfigBreakDeadTime
 220              	.LVL11:
 221 00b2 18B1     		cbz	r0, .L13
 245:Src/main.c    ****   }
 222              		.loc 1 245 0
 223 00b4 0648     		ldr	r0, .L15+8
 224 00b6 F521     		movs	r1, #245
 225 00b8 FFF7FEFF 		bl	_Error_Handler
 226              	.LVL12:
 227              	.L13:
 248:Src/main.c    **** 
 228              		.loc 1 248 0
 229 00bc 0248     		ldr	r0, .L15
 230 00be FFF7FEFF 		bl	HAL_TIM_MspPostInit
 231              	.LVL13:
 250:Src/main.c    **** 
 232              		.loc 1 250 0
 233 00c2 15B0     		add	sp, sp, #84
 234              	.LCFI4:
 235              		.cfi_def_cfa_offset 4
 236              		@ sp needed
 237 00c4 5DF804FB 		ldr	pc, [sp], #4
 238              	.L16:
 239              		.align	2
 240              	.L15:
 241 00c8 00000000 		.word	htim1
 242 00cc 00000140 		.word	1073807360
 243 00d0 00000000 		.word	.LC0
 244              		.cfi_endproc
 245              	.LFE125:
 247              		.section	.text.SystemClock_Config,"ax",%progbits
 248              		.align	2
 249              		.global	SystemClock_Config
 250              		.thumb
 251              		.thumb_func
 253              	SystemClock_Config:
 254              	.LFB124:
 133:Src/main.c    **** 
 255              		.loc 1 133 0
 256              		.cfi_startproc
 257              		@ args = 0, pretend = 0, frame = 80
 258              		@ frame_needed = 0, uses_anonymous_args = 0
 259 0000 00B5     		push	{lr}
 260              	.LCFI5:
ARM GAS  /var/folders/ck/4xtm3skj1ssb0w4rn7_4q_gw0000gn/T//cc96rVB0.s 			page 11


 261              		.cfi_def_cfa_offset 4
 262              		.cfi_offset 14, -4
 263 0002 95B0     		sub	sp, sp, #84
 264              	.LCFI6:
 265              		.cfi_def_cfa_offset 88
 266              	.LBB3:
 140:Src/main.c    **** 
 267              		.loc 1 140 0
 268 0004 0022     		movs	r2, #0
 269 0006 0192     		str	r2, [sp, #4]
 270 0008 294B     		ldr	r3, .L21
 271 000a 196C     		ldr	r1, [r3, #64]
 272 000c 41F08051 		orr	r1, r1, #268435456
 273 0010 1964     		str	r1, [r3, #64]
 274 0012 1B6C     		ldr	r3, [r3, #64]
 275 0014 03F08053 		and	r3, r3, #268435456
 276 0018 0193     		str	r3, [sp, #4]
 277 001a 019B     		ldr	r3, [sp, #4]
 278              	.LBE3:
 279              	.LBB4:
 142:Src/main.c    **** 
 280              		.loc 1 142 0
 281 001c 0292     		str	r2, [sp, #8]
 282 001e 2549     		ldr	r1, .L21+4
 283 0020 0B68     		ldr	r3, [r1]
 284 0022 23F44043 		bic	r3, r3, #49152
 285 0026 43F40043 		orr	r3, r3, #32768
 286 002a 0B60     		str	r3, [r1]
 287 002c 0B68     		ldr	r3, [r1]
 288 002e 03F44043 		and	r3, r3, #49152
 289 0032 0293     		str	r3, [sp, #8]
 290 0034 029B     		ldr	r3, [sp, #8]
 291              	.LBE4:
 146:Src/main.c    ****   RCC_OscInitStruct.HSIState = RCC_HSI_ON;
 292              		.loc 1 146 0
 293 0036 0223     		movs	r3, #2
 294 0038 0893     		str	r3, [sp, #32]
 147:Src/main.c    ****   RCC_OscInitStruct.HSICalibrationValue = 16;
 295              		.loc 1 147 0
 296 003a 0121     		movs	r1, #1
 297 003c 0B91     		str	r1, [sp, #44]
 148:Src/main.c    ****   RCC_OscInitStruct.PLL.PLLState = RCC_PLL_ON;
 298              		.loc 1 148 0
 299 003e 1021     		movs	r1, #16
 300 0040 0C91     		str	r1, [sp, #48]
 149:Src/main.c    ****   RCC_OscInitStruct.PLL.PLLSource = RCC_PLLSOURCE_HSI;
 301              		.loc 1 149 0
 302 0042 0E93     		str	r3, [sp, #56]
 150:Src/main.c    ****   RCC_OscInitStruct.PLL.PLLM = 8;
 303              		.loc 1 150 0
 304 0044 0F92     		str	r2, [sp, #60]
 151:Src/main.c    ****   RCC_OscInitStruct.PLL.PLLN = 84;
 305              		.loc 1 151 0
 306 0046 0822     		movs	r2, #8
 307 0048 1092     		str	r2, [sp, #64]
 152:Src/main.c    ****   RCC_OscInitStruct.PLL.PLLP = RCC_PLLP_DIV2;
 308              		.loc 1 152 0
ARM GAS  /var/folders/ck/4xtm3skj1ssb0w4rn7_4q_gw0000gn/T//cc96rVB0.s 			page 12


 309 004a 5422     		movs	r2, #84
 310 004c 1192     		str	r2, [sp, #68]
 153:Src/main.c    ****   RCC_OscInitStruct.PLL.PLLQ = 4;
 311              		.loc 1 153 0
 312 004e 1293     		str	r3, [sp, #72]
 154:Src/main.c    ****   if (HAL_RCC_OscConfig(&RCC_OscInitStruct) != HAL_OK)
 313              		.loc 1 154 0
 314 0050 0423     		movs	r3, #4
 315 0052 1393     		str	r3, [sp, #76]
 155:Src/main.c    ****   {
 316              		.loc 1 155 0
 317 0054 08A8     		add	r0, sp, #32
 318 0056 FFF7FEFF 		bl	HAL_RCC_OscConfig
 319              	.LVL14:
 320 005a 18B1     		cbz	r0, .L18
 157:Src/main.c    ****   }
 321              		.loc 1 157 0
 322 005c 1648     		ldr	r0, .L21+8
 323 005e 9D21     		movs	r1, #157
 324 0060 FFF7FEFF 		bl	_Error_Handler
 325              	.LVL15:
 326              	.L18:
 162:Src/main.c    ****                               |RCC_CLOCKTYPE_PCLK1|RCC_CLOCKTYPE_PCLK2;
 327              		.loc 1 162 0
 328 0064 0F23     		movs	r3, #15
 329 0066 0393     		str	r3, [sp, #12]
 164:Src/main.c    ****   RCC_ClkInitStruct.AHBCLKDivider = RCC_SYSCLK_DIV1;
 330              		.loc 1 164 0
 331 0068 0221     		movs	r1, #2
 332 006a 0491     		str	r1, [sp, #16]
 165:Src/main.c    ****   RCC_ClkInitStruct.APB1CLKDivider = RCC_HCLK_DIV2;
 333              		.loc 1 165 0
 334 006c 0023     		movs	r3, #0
 335 006e 0593     		str	r3, [sp, #20]
 166:Src/main.c    ****   RCC_ClkInitStruct.APB2CLKDivider = RCC_HCLK_DIV1;
 336              		.loc 1 166 0
 337 0070 4FF48052 		mov	r2, #4096
 338 0074 0692     		str	r2, [sp, #24]
 167:Src/main.c    **** 
 339              		.loc 1 167 0
 340 0076 0793     		str	r3, [sp, #28]
 169:Src/main.c    ****   {
 341              		.loc 1 169 0
 342 0078 03A8     		add	r0, sp, #12
 343 007a FFF7FEFF 		bl	HAL_RCC_ClockConfig
 344              	.LVL16:
 345 007e 18B1     		cbz	r0, .L19
 171:Src/main.c    ****   }
 346              		.loc 1 171 0
 347 0080 0D48     		ldr	r0, .L21+8
 348 0082 AB21     		movs	r1, #171
 349 0084 FFF7FEFF 		bl	_Error_Handler
 350              	.LVL17:
 351              	.L19:
 176:Src/main.c    **** 
 352              		.loc 1 176 0
 353 0088 FFF7FEFF 		bl	HAL_RCC_GetHCLKFreq
ARM GAS  /var/folders/ck/4xtm3skj1ssb0w4rn7_4q_gw0000gn/T//cc96rVB0.s 			page 13


 354              	.LVL18:
 355 008c 0B4B     		ldr	r3, .L21+12
 356 008e A3FB0030 		umull	r3, r0, r3, r0
 357 0092 8009     		lsrs	r0, r0, #6
 358 0094 FFF7FEFF 		bl	HAL_SYSTICK_Config
 359              	.LVL19:
 180:Src/main.c    **** 
 360              		.loc 1 180 0
 361 0098 0420     		movs	r0, #4
 362 009a FFF7FEFF 		bl	HAL_SYSTICK_CLKSourceConfig
 363              	.LVL20:
 183:Src/main.c    **** }
 364              		.loc 1 183 0
 365 009e 4FF0FF30 		mov	r0, #-1
 366 00a2 0021     		movs	r1, #0
 367 00a4 0A46     		mov	r2, r1
 368 00a6 FFF7FEFF 		bl	HAL_NVIC_SetPriority
 369              	.LVL21:
 184:Src/main.c    **** 
 370              		.loc 1 184 0
 371 00aa 15B0     		add	sp, sp, #84
 372              	.LCFI7:
 373              		.cfi_def_cfa_offset 4
 374              		@ sp needed
 375 00ac 5DF804FB 		ldr	pc, [sp], #4
 376              	.L22:
 377              		.align	2
 378              	.L21:
 379 00b0 00380240 		.word	1073887232
 380 00b4 00700040 		.word	1073770496
 381 00b8 00000000 		.word	.LC0
 382 00bc D34D6210 		.word	274877907
 383              		.cfi_endproc
 384              	.LFE124:
 386              		.section	.text.main,"ax",%progbits
 387              		.align	2
 388              		.global	main
 389              		.thumb
 390              		.thumb_func
 392              	main:
 393              	.LFB123:
  77:Src/main.c    ****   /* USER CODE BEGIN 1 */
 394              		.loc 1 77 0
 395              		.cfi_startproc
 396              		@ Volatile: function does not return.
 397              		@ args = 0, pretend = 0, frame = 0
 398              		@ frame_needed = 0, uses_anonymous_args = 0
 399 0000 08B5     		push	{r3, lr}
 400              	.LCFI8:
 401              		.cfi_def_cfa_offset 8
 402              		.cfi_offset 3, -8
 403              		.cfi_offset 14, -4
  85:Src/main.c    **** 
 404              		.loc 1 85 0
 405 0002 FFF7FEFF 		bl	HAL_Init
 406              	.LVL22:
  92:Src/main.c    **** 
ARM GAS  /var/folders/ck/4xtm3skj1ssb0w4rn7_4q_gw0000gn/T//cc96rVB0.s 			page 14


 407              		.loc 1 92 0
 408 0006 FFF7FEFF 		bl	SystemClock_Config
 409              	.LVL23:
  99:Src/main.c    ****   MX_TIM1_Init();
 410              		.loc 1 99 0
 411 000a FFF7FEFF 		bl	MX_GPIO_Init
 412              	.LVL24:
 100:Src/main.c    ****   /* USER CODE BEGIN 2 */
 413              		.loc 1 100 0
 414 000e FFF7FEFF 		bl	MX_TIM1_Init
 415              	.LVL25:
 108:Src/main.c    ****   /* USER CODE END 2 */
 416              		.loc 1 108 0
 417 0012 0A48     		ldr	r0, .L26
 418 0014 0021     		movs	r1, #0
 419 0016 FFF7FEFF 		bl	HAL_TIM_PWM_Start
 420              	.LVL26:
 421              	.L24:
 115:Src/main.c    ****     HAL_Delay(1000);
 422              		.loc 1 115 0 discriminator 1
 423 001a 084C     		ldr	r4, .L26
 424 001c 2368     		ldr	r3, [r4]
 425 001e 6422     		movs	r2, #100
 426 0020 5A63     		str	r2, [r3, #52]
 116:Src/main.c    ****     __HAL_TIM_SET_COMPARE(&htim1, TIM_CHANNEL_1, 2000 * 0.1);
 427              		.loc 1 116 0 discriminator 1
 428 0022 4FF47A70 		mov	r0, #1000
 429 0026 FFF7FEFF 		bl	HAL_Delay
 430              	.LVL27:
 117:Src/main.c    ****     HAL_Delay(1000);
 431              		.loc 1 117 0 discriminator 1
 432 002a 2368     		ldr	r3, [r4]
 433 002c C822     		movs	r2, #200
 434 002e 5A63     		str	r2, [r3, #52]
 118:Src/main.c    ****   /* USER CODE END WHILE */
 435              		.loc 1 118 0 discriminator 1
 436 0030 4FF47A70 		mov	r0, #1000
 437 0034 FFF7FEFF 		bl	HAL_Delay
 438              	.LVL28:
 123:Src/main.c    ****   /* USER CODE END 3 */
 439              		.loc 1 123 0 discriminator 1
 440 0038 EFE7     		b	.L24
 441              	.L27:
 442 003a 00BF     		.align	2
 443              	.L26:
 444 003c 00000000 		.word	htim1
 445              		.cfi_endproc
 446              	.LFE123:
 448              		.comm	htim1,60,4
 449              		.section	.rodata.str1.4,"aMS",%progbits,1
 450              		.align	2
 451              	.LC0:
 452 0000 5372632F 		.ascii	"Src/main.c\000"
 452      6D61696E 
 452      2E6300
 453              		.text
 454              	.Letext0:
ARM GAS  /var/folders/ck/4xtm3skj1ssb0w4rn7_4q_gw0000gn/T//cc96rVB0.s 			page 15


 455              		.file 2 "Drivers/CMSIS/Device/ST/STM32F4xx/Include/stm32f401xe.h"
 456              		.file 3 "/usr/local/Cellar/arm-none-eabi-gcc/20150921/arm-none-eabi/include/machine/_default_types
 457              		.file 4 "/usr/local/Cellar/arm-none-eabi-gcc/20150921/arm-none-eabi/include/sys/_stdint.h"
 458              		.file 5 "Drivers/STM32F4xx_HAL_Driver/Inc/stm32f4xx_hal_def.h"
 459              		.file 6 "Drivers/STM32F4xx_HAL_Driver/Inc/stm32f4xx_hal_rcc_ex.h"
 460              		.file 7 "Drivers/STM32F4xx_HAL_Driver/Inc/stm32f4xx_hal_rcc.h"
 461              		.file 8 "Drivers/STM32F4xx_HAL_Driver/Inc/stm32f4xx_hal_dma.h"
 462              		.file 9 "Drivers/STM32F4xx_HAL_Driver/Inc/stm32f4xx_hal_tim.h"
 463              		.file 10 "Drivers/STM32F4xx_HAL_Driver/Inc/stm32f4xx_hal_tim_ex.h"
 464              		.file 11 "Drivers/CMSIS/Include/core_cm4.h"
 465              		.file 12 "Drivers/STM32F4xx_HAL_Driver/Inc/stm32f4xx_hal_cortex.h"
 466              		.file 13 "Drivers/STM32F4xx_HAL_Driver/Inc/stm32f4xx_hal.h"
ARM GAS  /var/folders/ck/4xtm3skj1ssb0w4rn7_4q_gw0000gn/T//cc96rVB0.s 			page 16

